
build/release/EEE2046Prac.elf:     file format elf32-littlearm

Sections:
Idx Name          Size      VMA       LMA       File off  Algn
  0 .isr_vector   000000c0  08000000  08000000  00001000  2**0
                  CONTENTS, ALLOC, LOAD, READONLY, DATA
  1 .text         00000758  080000c0  080000c0  000010c0  2**2
                  CONTENTS, ALLOC, LOAD, READONLY, CODE
  2 .rodata       0000009c  08000818  08000818  00001818  2**2
                  CONTENTS, ALLOC, LOAD, READONLY, DATA
  3 .init_array   00000004  080008b4  080008b4  000018b4  2**2
                  CONTENTS, ALLOC, LOAD, DATA
  4 .fini_array   00000004  080008b8  080008b8  000018b8  2**2
                  CONTENTS, ALLOC, LOAD, DATA
  5 .data         00000040  20000000  080008bc  00002000  2**2
                  CONTENTS, ALLOC, LOAD, DATA
  6 .bss          00000024  20000040  080008fc  00002040  2**2
                  ALLOC
  7 ._user_heap_stack 00000604  20000064  080008fc  00002064  2**0
                  ALLOC
  8 .ARM.attributes 00000028  00000000  00000000  00002040  2**0
                  CONTENTS, READONLY
  9 .comment      00000039  00000000  00000000  00002068  2**0
                  CONTENTS, READONLY

Disassembly of section .text:

080000c0 <__do_global_dtors_aux>:
 80000c0:	b510      	push	{r4, lr}
 80000c2:	4c06      	ldr	r4, [pc, #24]	@ (80000dc <__do_global_dtors_aux+0x1c>)
 80000c4:	7823      	ldrb	r3, [r4, #0]
 80000c6:	2b00      	cmp	r3, #0
 80000c8:	d107      	bne.n	80000da <__do_global_dtors_aux+0x1a>
 80000ca:	4b05      	ldr	r3, [pc, #20]	@ (80000e0 <__do_global_dtors_aux+0x20>)
 80000cc:	2b00      	cmp	r3, #0
 80000ce:	d002      	beq.n	80000d6 <__do_global_dtors_aux+0x16>
 80000d0:	4804      	ldr	r0, [pc, #16]	@ (80000e4 <__do_global_dtors_aux+0x24>)
 80000d2:	e000      	b.n	80000d6 <__do_global_dtors_aux+0x16>
 80000d4:	bf00      	nop
 80000d6:	2301      	movs	r3, #1
 80000d8:	7023      	strb	r3, [r4, #0]
 80000da:	bd10      	pop	{r4, pc}
 80000dc:	20000040 	.word	0x20000040
 80000e0:	00000000 	.word	0x00000000
 80000e4:	08000800 	.word	0x08000800

080000e8 <frame_dummy>:
 80000e8:	4b04      	ldr	r3, [pc, #16]	@ (80000fc <frame_dummy+0x14>)
 80000ea:	b510      	push	{r4, lr}
 80000ec:	2b00      	cmp	r3, #0
 80000ee:	d003      	beq.n	80000f8 <frame_dummy+0x10>
 80000f0:	4903      	ldr	r1, [pc, #12]	@ (8000100 <frame_dummy+0x18>)
 80000f2:	4804      	ldr	r0, [pc, #16]	@ (8000104 <frame_dummy+0x1c>)
 80000f4:	e000      	b.n	80000f8 <frame_dummy+0x10>
 80000f6:	bf00      	nop
 80000f8:	bd10      	pop	{r4, pc}
 80000fa:	46c0      	nop			@ (mov r8, r8)
 80000fc:	00000000 	.word	0x00000000
 8000100:	20000044 	.word	0x20000044
 8000104:	08000800 	.word	0x08000800

08000108 <delay>:
 8000108:	b082      	sub	sp, #8
 800010a:	0043      	lsls	r3, r0, #1
 800010c:	1818      	adds	r0, r3, r0
 800010e:	2300      	movs	r3, #0
 8000110:	9301      	str	r3, [sp, #4]
 8000112:	e004      	b.n	800011e <delay+0x16>
 8000114:	46c0      	nop			@ (mov r8, r8)
 8000116:	46c0      	nop			@ (mov r8, r8)
 8000118:	9b01      	ldr	r3, [sp, #4]
 800011a:	3301      	adds	r3, #1
 800011c:	9301      	str	r3, [sp, #4]
 800011e:	9b01      	ldr	r3, [sp, #4]
 8000120:	4283      	cmp	r3, r0
 8000122:	d3f7      	bcc.n	8000114 <delay+0xc>
 8000124:	b002      	add	sp, #8
 8000126:	4770      	bx	lr

08000128 <pulse_strobe>:
 8000128:	b570      	push	{r4, r5, r6, lr}
 800012a:	2014      	movs	r0, #20
 800012c:	f7ff ffec 	bl	8000108 <delay>
 8000130:	4c0a      	ldr	r4, [pc, #40]	@ (800015c <pulse_strobe+0x34>)
 8000132:	69a3      	ldr	r3, [r4, #24]
 8000134:	2580      	movs	r5, #128	@ 0x80
 8000136:	022d      	lsls	r5, r5, #8
 8000138:	432b      	orrs	r3, r5
 800013a:	61a3      	str	r3, [r4, #24]
 800013c:	2014      	movs	r0, #20
 800013e:	f7ff ffe3 	bl	8000108 <delay>
 8000142:	69a2      	ldr	r2, [r4, #24]
 8000144:	2380      	movs	r3, #128	@ 0x80
 8000146:	061b      	lsls	r3, r3, #24
 8000148:	4313      	orrs	r3, r2
 800014a:	61a3      	str	r3, [r4, #24]
 800014c:	2014      	movs	r0, #20
 800014e:	f7ff ffdb 	bl	8000108 <delay>
 8000152:	69a3      	ldr	r3, [r4, #24]
 8000154:	431d      	orrs	r5, r3
 8000156:	61a5      	str	r5, [r4, #24]
 8000158:	bd70      	pop	{r4, r5, r6, pc}
 800015a:	46c0      	nop			@ (mov r8, r8)
 800015c:	48000800 	.word	0x48000800

08000160 <lcd_putchar>:
 8000160:	b510      	push	{r4, lr}
 8000162:	0004      	movs	r4, r0
 8000164:	4a45      	ldr	r2, [pc, #276]	@ (800027c <lcd_putchar+0x11c>)
 8000166:	6991      	ldr	r1, [r2, #24]
 8000168:	2380      	movs	r3, #128	@ 0x80
 800016a:	01db      	lsls	r3, r3, #7
 800016c:	430b      	orrs	r3, r1
 800016e:	6193      	str	r3, [r2, #24]
 8000170:	b243      	sxtb	r3, r0
 8000172:	2b00      	cmp	r3, #0
 8000174:	db46      	blt.n	8000204 <lcd_putchar+0xa4>
 8000176:	2290      	movs	r2, #144	@ 0x90
 8000178:	05d2      	lsls	r2, r2, #23
 800017a:	6991      	ldr	r1, [r2, #24]
 800017c:	2380      	movs	r3, #128	@ 0x80
 800017e:	061b      	lsls	r3, r3, #24
 8000180:	430b      	orrs	r3, r1
 8000182:	6193      	str	r3, [r2, #24]
 8000184:	0663      	lsls	r3, r4, #25
 8000186:	d545      	bpl.n	8000214 <lcd_putchar+0xb4>
 8000188:	2290      	movs	r2, #144	@ 0x90
 800018a:	05d2      	lsls	r2, r2, #23
 800018c:	6991      	ldr	r1, [r2, #24]
 800018e:	2380      	movs	r3, #128	@ 0x80
 8000190:	015b      	lsls	r3, r3, #5
 8000192:	430b      	orrs	r3, r1
 8000194:	6193      	str	r3, [r2, #24]
 8000196:	06a3      	lsls	r3, r4, #26
 8000198:	d544      	bpl.n	8000224 <lcd_putchar+0xc4>
 800019a:	4a39      	ldr	r2, [pc, #228]	@ (8000280 <lcd_putchar+0x120>)
 800019c:	6991      	ldr	r1, [r2, #24]
 800019e:	2380      	movs	r3, #128	@ 0x80
 80001a0:	009b      	lsls	r3, r3, #2
 80001a2:	430b      	orrs	r3, r1
 80001a4:	6193      	str	r3, [r2, #24]
 80001a6:	06e3      	lsls	r3, r4, #27
 80001a8:	d543      	bpl.n	8000232 <lcd_putchar+0xd2>
 80001aa:	4a35      	ldr	r2, [pc, #212]	@ (8000280 <lcd_putchar+0x120>)
 80001ac:	6991      	ldr	r1, [r2, #24]
 80001ae:	2380      	movs	r3, #128	@ 0x80
 80001b0:	005b      	lsls	r3, r3, #1
 80001b2:	430b      	orrs	r3, r1
 80001b4:	6193      	str	r3, [r2, #24]
 80001b6:	f7ff ffb7 	bl	8000128 <pulse_strobe>
 80001ba:	0723      	lsls	r3, r4, #28
 80001bc:	d540      	bpl.n	8000240 <lcd_putchar+0xe0>
 80001be:	2290      	movs	r2, #144	@ 0x90
 80001c0:	05d2      	lsls	r2, r2, #23
 80001c2:	6991      	ldr	r1, [r2, #24]
 80001c4:	2380      	movs	r3, #128	@ 0x80
 80001c6:	021b      	lsls	r3, r3, #8
 80001c8:	430b      	orrs	r3, r1
 80001ca:	6193      	str	r3, [r2, #24]
 80001cc:	0763      	lsls	r3, r4, #29
 80001ce:	d53f      	bpl.n	8000250 <lcd_putchar+0xf0>
 80001d0:	2290      	movs	r2, #144	@ 0x90
 80001d2:	05d2      	lsls	r2, r2, #23
 80001d4:	6991      	ldr	r1, [r2, #24]
 80001d6:	2380      	movs	r3, #128	@ 0x80
 80001d8:	015b      	lsls	r3, r3, #5
 80001da:	430b      	orrs	r3, r1
 80001dc:	6193      	str	r3, [r2, #24]
 80001de:	07a3      	lsls	r3, r4, #30
 80001e0:	d53e      	bpl.n	8000260 <lcd_putchar+0x100>
 80001e2:	4a27      	ldr	r2, [pc, #156]	@ (8000280 <lcd_putchar+0x120>)
 80001e4:	6991      	ldr	r1, [r2, #24]
 80001e6:	2380      	movs	r3, #128	@ 0x80
 80001e8:	009b      	lsls	r3, r3, #2
 80001ea:	430b      	orrs	r3, r1
 80001ec:	6193      	str	r3, [r2, #24]
 80001ee:	07e4      	lsls	r4, r4, #31
 80001f0:	d53d      	bpl.n	800026e <lcd_putchar+0x10e>
 80001f2:	4a23      	ldr	r2, [pc, #140]	@ (8000280 <lcd_putchar+0x120>)
 80001f4:	6991      	ldr	r1, [r2, #24]
 80001f6:	2380      	movs	r3, #128	@ 0x80
 80001f8:	005b      	lsls	r3, r3, #1
 80001fa:	430b      	orrs	r3, r1
 80001fc:	6193      	str	r3, [r2, #24]
 80001fe:	f7ff ff93 	bl	8000128 <pulse_strobe>
 8000202:	bd10      	pop	{r4, pc}
 8000204:	2290      	movs	r2, #144	@ 0x90
 8000206:	05d2      	lsls	r2, r2, #23
 8000208:	6991      	ldr	r1, [r2, #24]
 800020a:	2380      	movs	r3, #128	@ 0x80
 800020c:	021b      	lsls	r3, r3, #8
 800020e:	430b      	orrs	r3, r1
 8000210:	6193      	str	r3, [r2, #24]
 8000212:	e7b7      	b.n	8000184 <lcd_putchar+0x24>
 8000214:	2290      	movs	r2, #144	@ 0x90
 8000216:	05d2      	lsls	r2, r2, #23
 8000218:	6991      	ldr	r1, [r2, #24]
 800021a:	2380      	movs	r3, #128	@ 0x80
 800021c:	055b      	lsls	r3, r3, #21
 800021e:	430b      	orrs	r3, r1
 8000220:	6193      	str	r3, [r2, #24]
 8000222:	e7b8      	b.n	8000196 <lcd_putchar+0x36>
 8000224:	4a16      	ldr	r2, [pc, #88]	@ (8000280 <lcd_putchar+0x120>)
 8000226:	6991      	ldr	r1, [r2, #24]
 8000228:	2380      	movs	r3, #128	@ 0x80
 800022a:	049b      	lsls	r3, r3, #18
 800022c:	430b      	orrs	r3, r1
 800022e:	6193      	str	r3, [r2, #24]
 8000230:	e7b9      	b.n	80001a6 <lcd_putchar+0x46>
 8000232:	4a13      	ldr	r2, [pc, #76]	@ (8000280 <lcd_putchar+0x120>)
 8000234:	6991      	ldr	r1, [r2, #24]
 8000236:	2380      	movs	r3, #128	@ 0x80
 8000238:	045b      	lsls	r3, r3, #17
 800023a:	430b      	orrs	r3, r1
 800023c:	6193      	str	r3, [r2, #24]
 800023e:	e7ba      	b.n	80001b6 <lcd_putchar+0x56>
 8000240:	2290      	movs	r2, #144	@ 0x90
 8000242:	05d2      	lsls	r2, r2, #23
 8000244:	6991      	ldr	r1, [r2, #24]
 8000246:	2380      	movs	r3, #128	@ 0x80
 8000248:	061b      	lsls	r3, r3, #24
 800024a:	430b      	orrs	r3, r1
 800024c:	6193      	str	r3, [r2, #24]
 800024e:	e7bd      	b.n	80001cc <lcd_putchar+0x6c>
 8000250:	2290      	movs	r2, #144	@ 0x90
 8000252:	05d2      	lsls	r2, r2, #23
 8000254:	6991      	ldr	r1, [r2, #24]
 8000256:	2380      	movs	r3, #128	@ 0x80
 8000258:	055b      	lsls	r3, r3, #21
 800025a:	430b      	orrs	r3, r1
 800025c:	6193      	str	r3, [r2, #24]
 800025e:	e7be      	b.n	80001de <lcd_putchar+0x7e>
 8000260:	4a07      	ldr	r2, [pc, #28]	@ (8000280 <lcd_putchar+0x120>)
 8000262:	6991      	ldr	r1, [r2, #24]
 8000264:	2380      	movs	r3, #128	@ 0x80
 8000266:	049b      	lsls	r3, r3, #18
 8000268:	430b      	orrs	r3, r1
 800026a:	6193      	str	r3, [r2, #24]
 800026c:	e7bf      	b.n	80001ee <lcd_putchar+0x8e>
 800026e:	4a04      	ldr	r2, [pc, #16]	@ (8000280 <lcd_putchar+0x120>)
 8000270:	6991      	ldr	r1, [r2, #24]
 8000272:	2380      	movs	r3, #128	@ 0x80
 8000274:	045b      	lsls	r3, r3, #17
 8000276:	430b      	orrs	r3, r1
 8000278:	6193      	str	r3, [r2, #24]
 800027a:	e7c0      	b.n	80001fe <lcd_putchar+0x9e>
 800027c:	48000800 	.word	0x48000800
 8000280:	48000400 	.word	0x48000400

08000284 <lcd_putstring>:
 8000284:	b570      	push	{r4, r5, r6, lr}
 8000286:	0005      	movs	r5, r0
 8000288:	2400      	movs	r4, #0
 800028a:	e003      	b.n	8000294 <lcd_putstring+0x10>
 800028c:	f7ff ff68 	bl	8000160 <lcd_putchar>
 8000290:	3401      	adds	r4, #1
 8000292:	b2e4      	uxtb	r4, r4
 8000294:	5d28      	ldrb	r0, [r5, r4]
 8000296:	2800      	cmp	r0, #0
 8000298:	d1f8      	bne.n	800028c <lcd_putstring+0x8>
 800029a:	bd70      	pop	{r4, r5, r6, pc}

0800029c <lcd_command>:
 800029c:	b510      	push	{r4, lr}
 800029e:	0004      	movs	r4, r0
 80002a0:	4a47      	ldr	r2, [pc, #284]	@ (80003c0 <lcd_command+0x124>)
 80002a2:	6991      	ldr	r1, [r2, #24]
 80002a4:	2380      	movs	r3, #128	@ 0x80
 80002a6:	05db      	lsls	r3, r3, #23
 80002a8:	430b      	orrs	r3, r1
 80002aa:	6193      	str	r3, [r2, #24]
 80002ac:	b243      	sxtb	r3, r0
 80002ae:	2b00      	cmp	r3, #0
 80002b0:	db49      	blt.n	8000346 <lcd_command+0xaa>
 80002b2:	2290      	movs	r2, #144	@ 0x90
 80002b4:	05d2      	lsls	r2, r2, #23
 80002b6:	6991      	ldr	r1, [r2, #24]
 80002b8:	2380      	movs	r3, #128	@ 0x80
 80002ba:	061b      	lsls	r3, r3, #24
 80002bc:	430b      	orrs	r3, r1
 80002be:	6193      	str	r3, [r2, #24]
 80002c0:	0663      	lsls	r3, r4, #25
 80002c2:	d548      	bpl.n	8000356 <lcd_command+0xba>
 80002c4:	2290      	movs	r2, #144	@ 0x90
 80002c6:	05d2      	lsls	r2, r2, #23
 80002c8:	6991      	ldr	r1, [r2, #24]
 80002ca:	2380      	movs	r3, #128	@ 0x80
 80002cc:	015b      	lsls	r3, r3, #5
 80002ce:	430b      	orrs	r3, r1
 80002d0:	6193      	str	r3, [r2, #24]
 80002d2:	06a3      	lsls	r3, r4, #26
 80002d4:	d547      	bpl.n	8000366 <lcd_command+0xca>
 80002d6:	4a3b      	ldr	r2, [pc, #236]	@ (80003c4 <lcd_command+0x128>)
 80002d8:	6991      	ldr	r1, [r2, #24]
 80002da:	2380      	movs	r3, #128	@ 0x80
 80002dc:	009b      	lsls	r3, r3, #2
 80002de:	430b      	orrs	r3, r1
 80002e0:	6193      	str	r3, [r2, #24]
 80002e2:	06e3      	lsls	r3, r4, #27
 80002e4:	d546      	bpl.n	8000374 <lcd_command+0xd8>
 80002e6:	4a37      	ldr	r2, [pc, #220]	@ (80003c4 <lcd_command+0x128>)
 80002e8:	6991      	ldr	r1, [r2, #24]
 80002ea:	2380      	movs	r3, #128	@ 0x80
 80002ec:	005b      	lsls	r3, r3, #1
 80002ee:	430b      	orrs	r3, r1
 80002f0:	6193      	str	r3, [r2, #24]
 80002f2:	f7ff ff19 	bl	8000128 <pulse_strobe>
 80002f6:	0723      	lsls	r3, r4, #28
 80002f8:	d543      	bpl.n	8000382 <lcd_command+0xe6>
 80002fa:	2290      	movs	r2, #144	@ 0x90
 80002fc:	05d2      	lsls	r2, r2, #23
 80002fe:	6991      	ldr	r1, [r2, #24]
 8000300:	2380      	movs	r3, #128	@ 0x80
 8000302:	021b      	lsls	r3, r3, #8
 8000304:	430b      	orrs	r3, r1
 8000306:	6193      	str	r3, [r2, #24]
 8000308:	0763      	lsls	r3, r4, #29
 800030a:	d542      	bpl.n	8000392 <lcd_command+0xf6>
 800030c:	2290      	movs	r2, #144	@ 0x90
 800030e:	05d2      	lsls	r2, r2, #23
 8000310:	6991      	ldr	r1, [r2, #24]
 8000312:	2380      	movs	r3, #128	@ 0x80
 8000314:	015b      	lsls	r3, r3, #5
 8000316:	430b      	orrs	r3, r1
 8000318:	6193      	str	r3, [r2, #24]
 800031a:	07a3      	lsls	r3, r4, #30
 800031c:	d541      	bpl.n	80003a2 <lcd_command+0x106>
 800031e:	4a29      	ldr	r2, [pc, #164]	@ (80003c4 <lcd_command+0x128>)
 8000320:	6991      	ldr	r1, [r2, #24]
 8000322:	2380      	movs	r3, #128	@ 0x80
 8000324:	009b      	lsls	r3, r3, #2
 8000326:	430b      	orrs	r3, r1
 8000328:	6193      	str	r3, [r2, #24]
 800032a:	07e4      	lsls	r4, r4, #31
 800032c:	d540      	bpl.n	80003b0 <lcd_command+0x114>
 800032e:	4a25      	ldr	r2, [pc, #148]	@ (80003c4 <lcd_command+0x128>)
 8000330:	6991      	ldr	r1, [r2, #24]
 8000332:	2380      	movs	r3, #128	@ 0x80
 8000334:	005b      	lsls	r3, r3, #1
 8000336:	430b      	orrs	r3, r1
 8000338:	6193      	str	r3, [r2, #24]
 800033a:	f7ff fef5 	bl	8000128 <pulse_strobe>
 800033e:	4822      	ldr	r0, [pc, #136]	@ (80003c8 <lcd_command+0x12c>)
 8000340:	f7ff fee2 	bl	8000108 <delay>
 8000344:	bd10      	pop	{r4, pc}
 8000346:	2290      	movs	r2, #144	@ 0x90
 8000348:	05d2      	lsls	r2, r2, #23
 800034a:	6991      	ldr	r1, [r2, #24]
 800034c:	2380      	movs	r3, #128	@ 0x80
 800034e:	021b      	lsls	r3, r3, #8
 8000350:	430b      	orrs	r3, r1
 8000352:	6193      	str	r3, [r2, #24]
 8000354:	e7b4      	b.n	80002c0 <lcd_command+0x24>
 8000356:	2290      	movs	r2, #144	@ 0x90
 8000358:	05d2      	lsls	r2, r2, #23
 800035a:	6991      	ldr	r1, [r2, #24]
 800035c:	2380      	movs	r3, #128	@ 0x80
 800035e:	055b      	lsls	r3, r3, #21
 8000360:	430b      	orrs	r3, r1
 8000362:	6193      	str	r3, [r2, #24]
 8000364:	e7b5      	b.n	80002d2 <lcd_command+0x36>
 8000366:	4a17      	ldr	r2, [pc, #92]	@ (80003c4 <lcd_command+0x128>)
 8000368:	6991      	ldr	r1, [r2, #24]
 800036a:	2380      	movs	r3, #128	@ 0x80
 800036c:	049b      	lsls	r3, r3, #18
 800036e:	430b      	orrs	r3, r1
 8000370:	6193      	str	r3, [r2, #24]
 8000372:	e7b6      	b.n	80002e2 <lcd_command+0x46>
 8000374:	4a13      	ldr	r2, [pc, #76]	@ (80003c4 <lcd_command+0x128>)
 8000376:	6991      	ldr	r1, [r2, #24]
 8000378:	2380      	movs	r3, #128	@ 0x80
 800037a:	045b      	lsls	r3, r3, #17
 800037c:	430b      	orrs	r3, r1
 800037e:	6193      	str	r3, [r2, #24]
 8000380:	e7b7      	b.n	80002f2 <lcd_command+0x56>
 8000382:	2290      	movs	r2, #144	@ 0x90
 8000384:	05d2      	lsls	r2, r2, #23
 8000386:	6991      	ldr	r1, [r2, #24]
 8000388:	2380      	movs	r3, #128	@ 0x80
 800038a:	061b      	lsls	r3, r3, #24
 800038c:	430b      	orrs	r3, r1
 800038e:	6193      	str	r3, [r2, #24]
 8000390:	e7ba      	b.n	8000308 <lcd_command+0x6c>
 8000392:	2290      	movs	r2, #144	@ 0x90
 8000394:	05d2      	lsls	r2, r2, #23
 8000396:	6991      	ldr	r1, [r2, #24]
 8000398:	2380      	movs	r3, #128	@ 0x80
 800039a:	055b      	lsls	r3, r3, #21
 800039c:	430b      	orrs	r3, r1
 800039e:	6193      	str	r3, [r2, #24]
 80003a0:	e7bb      	b.n	800031a <lcd_command+0x7e>
 80003a2:	4a08      	ldr	r2, [pc, #32]	@ (80003c4 <lcd_command+0x128>)
 80003a4:	6991      	ldr	r1, [r2, #24]
 80003a6:	2380      	movs	r3, #128	@ 0x80
 80003a8:	049b      	lsls	r3, r3, #18
 80003aa:	430b      	orrs	r3, r1
 80003ac:	6193      	str	r3, [r2, #24]
 80003ae:	e7bc      	b.n	800032a <lcd_command+0x8e>
 80003b0:	4a04      	ldr	r2, [pc, #16]	@ (80003c4 <lcd_command+0x128>)
 80003b2:	6991      	ldr	r1, [r2, #24]
 80003b4:	2380      	movs	r3, #128	@ 0x80
 80003b6:	045b      	lsls	r3, r3, #17
 80003b8:	430b      	orrs	r3, r1
 80003ba:	6193      	str	r3, [r2, #24]
 80003bc:	e7bd      	b.n	800033a <lcd_command+0x9e>
 80003be:	46c0      	nop			@ (mov r8, r8)
 80003c0:	48000800 	.word	0x48000800
 80003c4:	48000400 	.word	0x48000400
 80003c8:	00000bb8 	.word	0x00000bb8

080003cc <init_LCD>:
 80003cc:	b510      	push	{r4, lr}
 80003ce:	4b1b      	ldr	r3, [pc, #108]	@ (800043c <init_LCD+0x70>)
 80003d0:	6959      	ldr	r1, [r3, #20]
 80003d2:	2280      	movs	r2, #128	@ 0x80
 80003d4:	0292      	lsls	r2, r2, #10
 80003d6:	430a      	orrs	r2, r1
 80003d8:	615a      	str	r2, [r3, #20]
 80003da:	6959      	ldr	r1, [r3, #20]
 80003dc:	2280      	movs	r2, #128	@ 0x80
 80003de:	02d2      	lsls	r2, r2, #11
 80003e0:	430a      	orrs	r2, r1
 80003e2:	615a      	str	r2, [r3, #20]
 80003e4:	6959      	ldr	r1, [r3, #20]
 80003e6:	2280      	movs	r2, #128	@ 0x80
 80003e8:	0312      	lsls	r2, r2, #12
 80003ea:	430a      	orrs	r2, r1
 80003ec:	615a      	str	r2, [r3, #20]
 80003ee:	2290      	movs	r2, #144	@ 0x90
 80003f0:	05d2      	lsls	r2, r2, #23
 80003f2:	6811      	ldr	r1, [r2, #0]
 80003f4:	2382      	movs	r3, #130	@ 0x82
 80003f6:	05db      	lsls	r3, r3, #23
 80003f8:	430b      	orrs	r3, r1
 80003fa:	6013      	str	r3, [r2, #0]
 80003fc:	4a10      	ldr	r2, [pc, #64]	@ (8000440 <init_LCD+0x74>)
 80003fe:	6811      	ldr	r1, [r2, #0]
 8000400:	23a0      	movs	r3, #160	@ 0xa0
 8000402:	02db      	lsls	r3, r3, #11
 8000404:	430b      	orrs	r3, r1
 8000406:	6013      	str	r3, [r2, #0]
 8000408:	4a0e      	ldr	r2, [pc, #56]	@ (8000444 <init_LCD+0x78>)
 800040a:	6811      	ldr	r1, [r2, #0]
 800040c:	23a0      	movs	r3, #160	@ 0xa0
 800040e:	05db      	lsls	r3, r3, #23
 8000410:	430b      	orrs	r3, r1
 8000412:	6013      	str	r3, [r2, #0]
 8000414:	480c      	ldr	r0, [pc, #48]	@ (8000448 <init_LCD+0x7c>)
 8000416:	f7ff fe77 	bl	8000108 <delay>
 800041a:	2033      	movs	r0, #51	@ 0x33
 800041c:	f7ff ff3e 	bl	800029c <lcd_command>
 8000420:	2032      	movs	r0, #50	@ 0x32
 8000422:	f7ff ff3b 	bl	800029c <lcd_command>
 8000426:	200c      	movs	r0, #12
 8000428:	f7ff ff38 	bl	800029c <lcd_command>
 800042c:	2028      	movs	r0, #40	@ 0x28
 800042e:	f7ff ff35 	bl	800029c <lcd_command>
 8000432:	2001      	movs	r0, #1
 8000434:	f7ff ff32 	bl	800029c <lcd_command>
 8000438:	bd10      	pop	{r4, pc}
 800043a:	46c0      	nop			@ (mov r8, r8)
 800043c:	40021000 	.word	0x40021000
 8000440:	48000400 	.word	0x48000400
 8000444:	48000800 	.word	0x48000800
 8000448:	00007530 	.word	0x00007530

0800044c <init_GPIO>:
 800044c:	b510      	push	{r4, lr}
 800044e:	4b11      	ldr	r3, [pc, #68]	@ (8000494 <init_GPIO+0x48>)
 8000450:	6959      	ldr	r1, [r3, #20]
 8000452:	2280      	movs	r2, #128	@ 0x80
 8000454:	0292      	lsls	r2, r2, #10
 8000456:	430a      	orrs	r2, r1
 8000458:	615a      	str	r2, [r3, #20]
 800045a:	6959      	ldr	r1, [r3, #20]
 800045c:	2280      	movs	r2, #128	@ 0x80
 800045e:	02d2      	lsls	r2, r2, #11
 8000460:	430a      	orrs	r2, r1
 8000462:	615a      	str	r2, [r3, #20]
 8000464:	2390      	movs	r3, #144	@ 0x90
 8000466:	05db      	lsls	r3, r3, #23
 8000468:	681a      	ldr	r2, [r3, #0]
 800046a:	20ff      	movs	r0, #255	@ 0xff
 800046c:	4382      	bics	r2, r0
 800046e:	601a      	str	r2, [r3, #0]
 8000470:	4909      	ldr	r1, [pc, #36]	@ (8000498 <init_GPIO+0x4c>)
 8000472:	680a      	ldr	r2, [r1, #0]
 8000474:	0c12      	lsrs	r2, r2, #16
 8000476:	0412      	lsls	r2, r2, #16
 8000478:	600a      	str	r2, [r1, #0]
 800047a:	680c      	ldr	r4, [r1, #0]
 800047c:	4a07      	ldr	r2, [pc, #28]	@ (800049c <init_GPIO+0x50>)
 800047e:	4322      	orrs	r2, r4
 8000480:	600a      	str	r2, [r1, #0]
 8000482:	68da      	ldr	r2, [r3, #12]
 8000484:	4382      	bics	r2, r0
 8000486:	60da      	str	r2, [r3, #12]
 8000488:	68da      	ldr	r2, [r3, #12]
 800048a:	2155      	movs	r1, #85	@ 0x55
 800048c:	430a      	orrs	r2, r1
 800048e:	60da      	str	r2, [r3, #12]
 8000490:	bd10      	pop	{r4, pc}
 8000492:	46c0      	nop			@ (mov r8, r8)
 8000494:	40021000 	.word	0x40021000
 8000498:	48000400 	.word	0x48000400
 800049c:	00005555 	.word	0x00005555

080004a0 <TIM14_init>:
 80004a0:	4a10      	ldr	r2, [pc, #64]	@ (80004e4 <TIM14_init+0x44>)
 80004a2:	69d1      	ldr	r1, [r2, #28]
 80004a4:	2380      	movs	r3, #128	@ 0x80
 80004a6:	005b      	lsls	r3, r3, #1
 80004a8:	430b      	orrs	r3, r1
 80004aa:	61d3      	str	r3, [r2, #28]
 80004ac:	4b0e      	ldr	r3, [pc, #56]	@ (80004e8 <TIM14_init+0x48>)
 80004ae:	4a0f      	ldr	r2, [pc, #60]	@ (80004ec <TIM14_init+0x4c>)
 80004b0:	629a      	str	r2, [r3, #40]	@ 0x28
 80004b2:	22fa      	movs	r2, #250	@ 0xfa
 80004b4:	0092      	lsls	r2, r2, #2
 80004b6:	62da      	str	r2, [r3, #44]	@ 0x2c
 80004b8:	691a      	ldr	r2, [r3, #16]
 80004ba:	2101      	movs	r1, #1
 80004bc:	438a      	bics	r2, r1
 80004be:	611a      	str	r2, [r3, #16]
 80004c0:	68da      	ldr	r2, [r3, #12]
 80004c2:	430a      	orrs	r2, r1
 80004c4:	60da      	str	r2, [r3, #12]
 80004c6:	4a0a      	ldr	r2, [pc, #40]	@ (80004f0 <TIM14_init+0x50>)
 80004c8:	20c4      	movs	r0, #196	@ 0xc4
 80004ca:	0080      	lsls	r0, r0, #2
 80004cc:	5813      	ldr	r3, [r2, r0]
 80004ce:	021b      	lsls	r3, r3, #8
 80004d0:	0a1b      	lsrs	r3, r3, #8
 80004d2:	2180      	movs	r1, #128	@ 0x80
 80004d4:	0609      	lsls	r1, r1, #24
 80004d6:	430b      	orrs	r3, r1
 80004d8:	5013      	str	r3, [r2, r0]
 80004da:	2380      	movs	r3, #128	@ 0x80
 80004dc:	031b      	lsls	r3, r3, #12
 80004de:	6013      	str	r3, [r2, #0]
 80004e0:	4770      	bx	lr
 80004e2:	46c0      	nop			@ (mov r8, r8)
 80004e4:	40021000 	.word	0x40021000
 80004e8:	40002000 	.word	0x40002000
 80004ec:	0000bb7f 	.word	0x0000bb7f
 80004f0:	e000e100 	.word	0xe000e100

080004f4 <TIM14_IRQHandler>:
 80004f4:	4b05      	ldr	r3, [pc, #20]	@ (800050c <TIM14_IRQHandler+0x18>)
 80004f6:	691b      	ldr	r3, [r3, #16]
 80004f8:	07db      	lsls	r3, r3, #31
 80004fa:	d506      	bpl.n	800050a <TIM14_IRQHandler+0x16>
 80004fc:	4903      	ldr	r1, [pc, #12]	@ (800050c <TIM14_IRQHandler+0x18>)
 80004fe:	690b      	ldr	r3, [r1, #16]
 8000500:	2201      	movs	r2, #1
 8000502:	4393      	bics	r3, r2
 8000504:	610b      	str	r3, [r1, #16]
 8000506:	4b02      	ldr	r3, [pc, #8]	@ (8000510 <TIM14_IRQHandler+0x1c>)
 8000508:	701a      	strb	r2, [r3, #0]
 800050a:	4770      	bx	lr
 800050c:	40002000 	.word	0x40002000
 8000510:	2000005d 	.word	0x2000005d

08000514 <TIM2_init>:
 8000514:	b530      	push	{r4, r5, lr}
 8000516:	4a11      	ldr	r2, [pc, #68]	@ (800055c <TIM2_init+0x48>)
 8000518:	69d3      	ldr	r3, [r2, #28]
 800051a:	2101      	movs	r1, #1
 800051c:	430b      	orrs	r3, r1
 800051e:	61d3      	str	r3, [r2, #28]
 8000520:	2380      	movs	r3, #128	@ 0x80
 8000522:	05db      	lsls	r3, r3, #23
 8000524:	4a0e      	ldr	r2, [pc, #56]	@ (8000560 <TIM2_init+0x4c>)
 8000526:	629a      	str	r2, [r3, #40]	@ 0x28
 8000528:	22c8      	movs	r2, #200	@ 0xc8
 800052a:	62da      	str	r2, [r3, #44]	@ 0x2c
 800052c:	691a      	ldr	r2, [r3, #16]
 800052e:	438a      	bics	r2, r1
 8000530:	611a      	str	r2, [r3, #16]
 8000532:	68da      	ldr	r2, [r3, #12]
 8000534:	430a      	orrs	r2, r1
 8000536:	60da      	str	r2, [r3, #12]
 8000538:	480a      	ldr	r0, [pc, #40]	@ (8000564 <TIM2_init+0x50>)
 800053a:	25c3      	movs	r5, #195	@ 0xc3
 800053c:	00ad      	lsls	r5, r5, #2
 800053e:	5942      	ldr	r2, [r0, r5]
 8000540:	0212      	lsls	r2, r2, #8
 8000542:	0a12      	lsrs	r2, r2, #8
 8000544:	24c0      	movs	r4, #192	@ 0xc0
 8000546:	0624      	lsls	r4, r4, #24
 8000548:	4322      	orrs	r2, r4
 800054a:	5142      	str	r2, [r0, r5]
 800054c:	2280      	movs	r2, #128	@ 0x80
 800054e:	0212      	lsls	r2, r2, #8
 8000550:	6002      	str	r2, [r0, #0]
 8000552:	681a      	ldr	r2, [r3, #0]
 8000554:	430a      	orrs	r2, r1
 8000556:	601a      	str	r2, [r3, #0]
 8000558:	bd30      	pop	{r4, r5, pc}
 800055a:	46c0      	nop			@ (mov r8, r8)
 800055c:	40021000 	.word	0x40021000
 8000560:	0000b797 	.word	0x0000b797
 8000564:	e000e100 	.word	0xe000e100

08000568 <main>:
 8000568:	b570      	push	{r4, r5, r6, lr}
 800056a:	f7ff ff6f 	bl	800044c <init_GPIO>
 800056e:	f7ff ff2d 	bl	80003cc <init_LCD>
 8000572:	2001      	movs	r0, #1
 8000574:	f7ff fe92 	bl	800029c <lcd_command>
 8000578:	4856      	ldr	r0, [pc, #344]	@ (80006d4 <main+0x16c>)
 800057a:	f7ff fe83 	bl	8000284 <lcd_putstring>
 800057e:	4c56      	ldr	r4, [pc, #344]	@ (80006d8 <main+0x170>)
 8000580:	0020      	movs	r0, r4
 8000582:	f7ff fdc1 	bl	8000108 <delay>
 8000586:	f7ff ffc5 	bl	8000514 <TIM2_init>
 800058a:	2001      	movs	r0, #1
 800058c:	f7ff fe86 	bl	800029c <lcd_command>
 8000590:	4852      	ldr	r0, [pc, #328]	@ (80006dc <main+0x174>)
 8000592:	f7ff fe77 	bl	8000284 <lcd_putstring>
 8000596:	0020      	movs	r0, r4
 8000598:	f7ff fdb6 	bl	8000108 <delay>
 800059c:	f7ff ff80 	bl	80004a0 <TIM14_init>
 80005a0:	4a4f      	ldr	r2, [pc, #316]	@ (80006e0 <main+0x178>)
 80005a2:	6813      	ldr	r3, [r2, #0]
 80005a4:	2101      	movs	r1, #1
 80005a6:	438b      	bics	r3, r1
 80005a8:	6013      	str	r3, [r2, #0]
 80005aa:	22ff      	movs	r2, #255	@ 0xff
 80005ac:	e076      	b.n	800069c <main+0x134>
 80005ae:	484d      	ldr	r0, [pc, #308]	@ (80006e4 <main+0x17c>)
 80005b0:	7801      	ldrb	r1, [r0, #0]
 80005b2:	3101      	adds	r1, #1
 80005b4:	3306      	adds	r3, #6
 80005b6:	400b      	ands	r3, r1
 80005b8:	7003      	strb	r3, [r0, #0]
 80005ba:	4b4b      	ldr	r3, [pc, #300]	@ (80006e8 <main+0x180>)
 80005bc:	2100      	movs	r1, #0
 80005be:	7019      	strb	r1, [r3, #0]
 80005c0:	e070      	b.n	80006a4 <main+0x13c>
 80005c2:	4a47      	ldr	r2, [pc, #284]	@ (80006e0 <main+0x178>)
 80005c4:	6813      	ldr	r3, [r2, #0]
 80005c6:	2101      	movs	r1, #1
 80005c8:	430b      	orrs	r3, r1
 80005ca:	6013      	str	r3, [r2, #0]
 80005cc:	2001      	movs	r0, #1
 80005ce:	f7ff fe65 	bl	800029c <lcd_command>
 80005d2:	4846      	ldr	r0, [pc, #280]	@ (80006ec <main+0x184>)
 80005d4:	f7ff fe56 	bl	8000284 <lcd_putstring>
 80005d8:	4845      	ldr	r0, [pc, #276]	@ (80006f0 <main+0x188>)
 80005da:	f7ff fd95 	bl	8000108 <delay>
 80005de:	22ff      	movs	r2, #255	@ 0xff
 80005e0:	e065      	b.n	80006ae <main+0x146>
 80005e2:	4a3f      	ldr	r2, [pc, #252]	@ (80006e0 <main+0x178>)
 80005e4:	6813      	ldr	r3, [r2, #0]
 80005e6:	2101      	movs	r1, #1
 80005e8:	438b      	bics	r3, r1
 80005ea:	6013      	str	r3, [r2, #0]
 80005ec:	2001      	movs	r0, #1
 80005ee:	f7ff fe55 	bl	800029c <lcd_command>
 80005f2:	4840      	ldr	r0, [pc, #256]	@ (80006f4 <main+0x18c>)
 80005f4:	f7ff fe46 	bl	8000284 <lcd_putstring>
 80005f8:	483d      	ldr	r0, [pc, #244]	@ (80006f0 <main+0x188>)
 80005fa:	f7ff fd85 	bl	8000108 <delay>
 80005fe:	22ff      	movs	r2, #255	@ 0xff
 8000600:	e05a      	b.n	80006b8 <main+0x150>
 8000602:	4b38      	ldr	r3, [pc, #224]	@ (80006e4 <main+0x17c>)
 8000604:	2200      	movs	r2, #0
 8000606:	701a      	strb	r2, [r3, #0]
 8000608:	2001      	movs	r0, #1
 800060a:	f7ff fe47 	bl	800029c <lcd_command>
 800060e:	483a      	ldr	r0, [pc, #232]	@ (80006f8 <main+0x190>)
 8000610:	f7ff fe38 	bl	8000284 <lcd_putstring>
 8000614:	4836      	ldr	r0, [pc, #216]	@ (80006f0 <main+0x188>)
 8000616:	f7ff fd77 	bl	8000108 <delay>
 800061a:	22ff      	movs	r2, #255	@ 0xff
 800061c:	e051      	b.n	80006c2 <main+0x15a>
 800061e:	4937      	ldr	r1, [pc, #220]	@ (80006fc <main+0x194>)
 8000620:	694b      	ldr	r3, [r1, #20]
 8000622:	4c37      	ldr	r4, [pc, #220]	@ (8000700 <main+0x198>)
 8000624:	00d2      	lsls	r2, r2, #3
 8000626:	5912      	ldr	r2, [r2, r4]
 8000628:	4393      	bics	r3, r2
 800062a:	00c0      	lsls	r0, r0, #3
 800062c:	5902      	ldr	r2, [r0, r4]
 800062e:	4313      	orrs	r3, r2
 8000630:	4d34      	ldr	r5, [pc, #208]	@ (8000704 <main+0x19c>)
 8000632:	782e      	ldrb	r6, [r5, #0]
 8000634:	2207      	movs	r2, #7
 8000636:	1b96      	subs	r6, r2, r6
 8000638:	00f6      	lsls	r6, r6, #3
 800063a:	5936      	ldr	r6, [r6, r4]
 800063c:	4333      	orrs	r3, r6
 800063e:	614b      	str	r3, [r1, #20]
 8000640:	694b      	ldr	r3, [r1, #20]
 8000642:	4e31      	ldr	r6, [pc, #196]	@ (8000708 <main+0x1a0>)
 8000644:	7836      	ldrb	r6, [r6, #0]
 8000646:	00f6      	lsls	r6, r6, #3
 8000648:	5936      	ldr	r6, [r6, r4]
 800064a:	43b3      	bics	r3, r6
 800064c:	782e      	ldrb	r6, [r5, #0]
 800064e:	1b92      	subs	r2, r2, r6
 8000650:	00d2      	lsls	r2, r2, #3
 8000652:	5912      	ldr	r2, [r2, r4]
 8000654:	4313      	orrs	r3, r2
 8000656:	5902      	ldr	r2, [r0, r4]
 8000658:	4313      	orrs	r3, r2
 800065a:	614b      	str	r3, [r1, #20]
 800065c:	4b2b      	ldr	r3, [pc, #172]	@ (800070c <main+0x1a4>)
 800065e:	2200      	movs	r2, #0
 8000660:	701a      	strb	r2, [r3, #0]
 8000662:	2001      	movs	r0, #1
 8000664:	f7ff fe1a 	bl	800029c <lcd_command>
 8000668:	2080      	movs	r0, #128	@ 0x80
 800066a:	f7ff fe17 	bl	800029c <lcd_command>
 800066e:	4828      	ldr	r0, [pc, #160]	@ (8000710 <main+0x1a8>)
 8000670:	f7ff fe08 	bl	8000284 <lcd_putstring>
 8000674:	4e1b      	ldr	r6, [pc, #108]	@ (80006e4 <main+0x17c>)
 8000676:	7833      	ldrb	r3, [r6, #0]
 8000678:	00db      	lsls	r3, r3, #3
 800067a:	18e3      	adds	r3, r4, r3
 800067c:	6858      	ldr	r0, [r3, #4]
 800067e:	f7ff fe01 	bl	8000284 <lcd_putstring>
 8000682:	2081      	movs	r0, #129	@ 0x81
 8000684:	f7ff fe0a 	bl	800029c <lcd_command>
 8000688:	4822      	ldr	r0, [pc, #136]	@ (8000714 <main+0x1ac>)
 800068a:	f7ff fdfb 	bl	8000284 <lcd_putstring>
 800068e:	782b      	ldrb	r3, [r5, #0]
 8000690:	00db      	lsls	r3, r3, #3
 8000692:	18e4      	adds	r4, r4, r3
 8000694:	6860      	ldr	r0, [r4, #4]
 8000696:	f7ff fdf5 	bl	8000284 <lcd_putstring>
 800069a:	7832      	ldrb	r2, [r6, #0]
 800069c:	4b12      	ldr	r3, [pc, #72]	@ (80006e8 <main+0x180>)
 800069e:	781b      	ldrb	r3, [r3, #0]
 80006a0:	2b01      	cmp	r3, #1
 80006a2:	d084      	beq.n	80005ae <main+0x46>
 80006a4:	2390      	movs	r3, #144	@ 0x90
 80006a6:	05db      	lsls	r3, r3, #23
 80006a8:	691b      	ldr	r3, [r3, #16]
 80006aa:	07db      	lsls	r3, r3, #31
 80006ac:	d589      	bpl.n	80005c2 <main+0x5a>
 80006ae:	2390      	movs	r3, #144	@ 0x90
 80006b0:	05db      	lsls	r3, r3, #23
 80006b2:	691b      	ldr	r3, [r3, #16]
 80006b4:	079b      	lsls	r3, r3, #30
 80006b6:	d594      	bpl.n	80005e2 <main+0x7a>
 80006b8:	2390      	movs	r3, #144	@ 0x90
 80006ba:	05db      	lsls	r3, r3, #23
 80006bc:	691b      	ldr	r3, [r3, #16]
 80006be:	075b      	lsls	r3, r3, #29
 80006c0:	d59f      	bpl.n	8000602 <main+0x9a>
 80006c2:	4b08      	ldr	r3, [pc, #32]	@ (80006e4 <main+0x17c>)
 80006c4:	7818      	ldrb	r0, [r3, #0]
 80006c6:	4290      	cmp	r0, r2
 80006c8:	d1a9      	bne.n	800061e <main+0xb6>
 80006ca:	4b10      	ldr	r3, [pc, #64]	@ (800070c <main+0x1a4>)
 80006cc:	781b      	ldrb	r3, [r3, #0]
 80006ce:	2b00      	cmp	r3, #0
 80006d0:	d0e4      	beq.n	800069c <main+0x134>
 80006d2:	e7a4      	b.n	800061e <main+0xb6>
 80006d4:	08000818 	.word	0x08000818
 80006d8:	000186a0 	.word	0x000186a0
 80006dc:	08000828 	.word	0x08000828
 80006e0:	40002000 	.word	0x40002000
 80006e4:	20000060 	.word	0x20000060
 80006e8:	2000005d 	.word	0x2000005d
 80006ec:	08000834 	.word	0x08000834
 80006f0:	00030d40 	.word	0x00030d40
 80006f4:	08000844 	.word	0x08000844
 80006f8:	08000854 	.word	0x08000854
 80006fc:	48000400 	.word	0x48000400
 8000700:	20000000 	.word	0x20000000
 8000704:	2000005e 	.word	0x2000005e
 8000708:	2000005f 	.word	0x2000005f
 800070c:	2000005c 	.word	0x2000005c
 8000710:	08000864 	.word	0x08000864
 8000714:	0800086c 	.word	0x0800086c

08000718 <TIM2_IRQHandler>:
 8000718:	2380      	movs	r3, #128	@ 0x80
 800071a:	05db      	lsls	r3, r3, #23
 800071c:	691b      	ldr	r3, [r3, #16]
 800071e:	07db      	lsls	r3, r3, #31
 8000720:	d512      	bpl.n	8000748 <TIM2_IRQHandler+0x30>
 8000722:	2180      	movs	r1, #128	@ 0x80
 8000724:	05c9      	lsls	r1, r1, #23
 8000726:	690b      	ldr	r3, [r1, #16]
 8000728:	2201      	movs	r2, #1
 800072a:	4393      	bics	r3, r2
 800072c:	610b      	str	r3, [r1, #16]
 800072e:	4b07      	ldr	r3, [pc, #28]	@ (800074c <TIM2_IRQHandler+0x34>)
 8000730:	701a      	strb	r2, [r3, #0]
 8000732:	4b07      	ldr	r3, [pc, #28]	@ (8000750 <TIM2_IRQHandler+0x38>)
 8000734:	7819      	ldrb	r1, [r3, #0]
 8000736:	2207      	movs	r2, #7
 8000738:	1a52      	subs	r2, r2, r1
 800073a:	4906      	ldr	r1, [pc, #24]	@ (8000754 <TIM2_IRQHandler+0x3c>)
 800073c:	700a      	strb	r2, [r1, #0]
 800073e:	7819      	ldrb	r1, [r3, #0]
 8000740:	3101      	adds	r1, #1
 8000742:	2207      	movs	r2, #7
 8000744:	400a      	ands	r2, r1
 8000746:	701a      	strb	r2, [r3, #0]
 8000748:	4770      	bx	lr
 800074a:	46c0      	nop			@ (mov r8, r8)
 800074c:	2000005c 	.word	0x2000005c
 8000750:	2000005e 	.word	0x2000005e
 8000754:	2000005f 	.word	0x2000005f

08000758 <NMI_Handler>:
 8000758:	e7fe      	b.n	8000758 <NMI_Handler>

0800075a <HardFault_Handler>:
 800075a:	e7fe      	b.n	800075a <HardFault_Handler>

0800075c <SVC_Handler>:
 800075c:	4770      	bx	lr

0800075e <PendSV_Handler>:
 800075e:	4770      	bx	lr

08000760 <SysTick_Handler>:
 8000760:	4770      	bx	lr

08000762 <SystemInit>:
 8000762:	4770      	bx	lr

08000764 <Reset_Handler>:
 8000764:	480d      	ldr	r0, [pc, #52]	@ (800079c <LoopForever+0x2>)
 8000766:	4685      	mov	sp, r0
 8000768:	f7ff fffb 	bl	8000762 <SystemInit>
 800076c:	480c      	ldr	r0, [pc, #48]	@ (80007a0 <LoopForever+0x6>)
 800076e:	490d      	ldr	r1, [pc, #52]	@ (80007a4 <LoopForever+0xa>)
 8000770:	4a0d      	ldr	r2, [pc, #52]	@ (80007a8 <LoopForever+0xe>)
 8000772:	2300      	movs	r3, #0
 8000774:	e002      	b.n	800077c <LoopCopyDataInit>

08000776 <CopyDataInit>:
 8000776:	58d4      	ldr	r4, [r2, r3]
 8000778:	50c4      	str	r4, [r0, r3]
 800077a:	3304      	adds	r3, #4

0800077c <LoopCopyDataInit>:
 800077c:	18c4      	adds	r4, r0, r3
 800077e:	428c      	cmp	r4, r1
 8000780:	d3f9      	bcc.n	8000776 <CopyDataInit>
 8000782:	4a0a      	ldr	r2, [pc, #40]	@ (80007ac <LoopForever+0x12>)
 8000784:	4c0a      	ldr	r4, [pc, #40]	@ (80007b0 <LoopForever+0x16>)
 8000786:	2300      	movs	r3, #0
 8000788:	e001      	b.n	800078e <LoopFillZerobss>

0800078a <FillZerobss>:
 800078a:	6013      	str	r3, [r2, #0]
 800078c:	3204      	adds	r2, #4

0800078e <LoopFillZerobss>:
 800078e:	42a2      	cmp	r2, r4
 8000790:	d3fb      	bcc.n	800078a <FillZerobss>
 8000792:	f000 f811 	bl	80007b8 <__libc_init_array>
 8000796:	f7ff fee7 	bl	8000568 <main>

0800079a <LoopForever>:
 800079a:	e7fe      	b.n	800079a <LoopForever>
 800079c:	20002000 	.word	0x20002000
 80007a0:	20000000 	.word	0x20000000
 80007a4:	20000040 	.word	0x20000040
 80007a8:	080008bc 	.word	0x080008bc
 80007ac:	20000040 	.word	0x20000040
 80007b0:	20000064 	.word	0x20000064

080007b4 <ADC1_COMP_IRQHandler>:
 80007b4:	e7fe      	b.n	80007b4 <ADC1_COMP_IRQHandler>
	...

080007b8 <__libc_init_array>:
 80007b8:	b570      	push	{r4, r5, r6, lr}
 80007ba:	2600      	movs	r6, #0
 80007bc:	4c0c      	ldr	r4, [pc, #48]	@ (80007f0 <__libc_init_array+0x38>)
 80007be:	4d0d      	ldr	r5, [pc, #52]	@ (80007f4 <__libc_init_array+0x3c>)
 80007c0:	1b64      	subs	r4, r4, r5
 80007c2:	10a4      	asrs	r4, r4, #2
 80007c4:	42a6      	cmp	r6, r4
 80007c6:	d109      	bne.n	80007dc <__libc_init_array+0x24>
 80007c8:	2600      	movs	r6, #0
 80007ca:	f000 f819 	bl	8000800 <_init>
 80007ce:	4c0a      	ldr	r4, [pc, #40]	@ (80007f8 <__libc_init_array+0x40>)
 80007d0:	4d0a      	ldr	r5, [pc, #40]	@ (80007fc <__libc_init_array+0x44>)
 80007d2:	1b64      	subs	r4, r4, r5
 80007d4:	10a4      	asrs	r4, r4, #2
 80007d6:	42a6      	cmp	r6, r4
 80007d8:	d105      	bne.n	80007e6 <__libc_init_array+0x2e>
 80007da:	bd70      	pop	{r4, r5, r6, pc}
 80007dc:	00b3      	lsls	r3, r6, #2
 80007de:	58eb      	ldr	r3, [r5, r3]
 80007e0:	4798      	blx	r3
 80007e2:	3601      	adds	r6, #1
 80007e4:	e7ee      	b.n	80007c4 <__libc_init_array+0xc>
 80007e6:	00b3      	lsls	r3, r6, #2
 80007e8:	58eb      	ldr	r3, [r5, r3]
 80007ea:	4798      	blx	r3
 80007ec:	3601      	adds	r6, #1
 80007ee:	e7f2      	b.n	80007d6 <__libc_init_array+0x1e>
 80007f0:	080008b4 	.word	0x080008b4
 80007f4:	080008b4 	.word	0x080008b4
 80007f8:	080008b8 	.word	0x080008b8
 80007fc:	080008b4 	.word	0x080008b4

08000800 <_init>:
 8000800:	b5f8      	push	{r3, r4, r5, r6, r7, lr}
 8000802:	46c0      	nop			@ (mov r8, r8)
 8000804:	bcf8      	pop	{r3, r4, r5, r6, r7}
 8000806:	bc08      	pop	{r3}
 8000808:	469e      	mov	lr, r3
 800080a:	4770      	bx	lr

0800080c <_fini>:
 800080c:	b5f8      	push	{r3, r4, r5, r6, r7, lr}
 800080e:	46c0      	nop			@ (mov r8, r8)
 8000810:	bcf8      	pop	{r3, r4, r5, r6, r7}
 8000812:	bc08      	pop	{r3}
 8000814:	469e      	mov	lr, r3
 8000816:	4770      	bx	lr
