ARM GAS  C:\Users\vince\AppData\Local\Temp\cc1guG8Y.s 			page 1


   1              		.cpu cortex-m0
   2              		.arch armv6s-m
   3              		.fpu softvfp
   4              		.eabi_attribute 20, 1
   5              		.eabi_attribute 21, 1
   6              		.eabi_attribute 23, 3
   7              		.eabi_attribute 24, 1
   8              		.eabi_attribute 25, 1
   9              		.eabi_attribute 26, 1
  10              		.eabi_attribute 30, 1
  11              		.eabi_attribute 34, 0
  12              		.eabi_attribute 18, 4
  13              		.file	"main.c"
  14              		.text
  15              		.section	.text.delay,"ax",%progbits
  16              		.align	1
  17              		.global	delay
  18              		.syntax unified
  19              		.code	16
  20              		.thumb_func
  22              	delay:
  23              		@ args = 0, pretend = 0, frame = 8
  24              		@ frame_needed = 0, uses_anonymous_args = 0
  25              		@ link register save eliminated.
  26 0000 82B0     		sub	sp, sp, #8
  27 0002 4300     		lsls	r3, r0, #1
  28 0004 1818     		adds	r0, r3, r0
  29 0006 0023     		movs	r3, #0
  30 0008 0193     		str	r3, [sp, #4]
  31 000a 04E0     		b	.L2
  32              	.L3:
  33              		.syntax divided
  34              	@ 336 "Core/Inc/lcd_stm32f0.c" 1
  35 000c C046     		nop
  36              	@ 0 "" 2
  37              	@ 337 "Core/Inc/lcd_stm32f0.c" 1
  38 000e C046     		nop
  39              	@ 0 "" 2
  40              		.thumb
  41              		.syntax unified
  42 0010 019B     		ldr	r3, [sp, #4]
  43 0012 0133     		adds	r3, r3, #1
  44 0014 0193     		str	r3, [sp, #4]
  45              	.L2:
  46 0016 019B     		ldr	r3, [sp, #4]
  47 0018 8342     		cmp	r3, r0
  48 001a F7D3     		bcc	.L3
  49 001c 02B0     		add	sp, sp, #8
  50              		@ sp needed
  51 001e 7047     		bx	lr
  53              		.section	.text.pulse_strobe,"ax",%progbits
  54              		.align	1
  55              		.global	pulse_strobe
  56              		.syntax unified
  57              		.code	16
  58              		.thumb_func
  60              	pulse_strobe:
ARM GAS  C:\Users\vince\AppData\Local\Temp\cc1guG8Y.s 			page 2


  61              		@ args = 0, pretend = 0, frame = 0
  62              		@ frame_needed = 0, uses_anonymous_args = 0
  63 0000 70B5     		push	{r4, r5, r6, lr}
  64 0002 1420     		movs	r0, #20
  65 0004 FFF7FEFF 		bl	delay
  66 0008 0A4C     		ldr	r4, .L5
  67 000a A369     		ldr	r3, [r4, #24]
  68 000c 8025     		movs	r5, #128
  69 000e 2D02     		lsls	r5, r5, #8
  70 0010 2B43     		orrs	r3, r5
  71 0012 A361     		str	r3, [r4, #24]
  72 0014 1420     		movs	r0, #20
  73 0016 FFF7FEFF 		bl	delay
  74 001a A269     		ldr	r2, [r4, #24]
  75 001c 8023     		movs	r3, #128
  76 001e 1B06     		lsls	r3, r3, #24
  77 0020 1343     		orrs	r3, r2
  78 0022 A361     		str	r3, [r4, #24]
  79 0024 1420     		movs	r0, #20
  80 0026 FFF7FEFF 		bl	delay
  81 002a A369     		ldr	r3, [r4, #24]
  82 002c 1D43     		orrs	r5, r3
  83 002e A561     		str	r5, [r4, #24]
  84              		@ sp needed
  85 0030 70BD     		pop	{r4, r5, r6, pc}
  86              	.L6:
  87 0032 C046     		.align	2
  88              	.L5:
  89 0034 00080048 		.word	1207961600
  91              		.section	.text.lcd_putchar,"ax",%progbits
  92              		.align	1
  93              		.global	lcd_putchar
  94              		.syntax unified
  95              		.code	16
  96              		.thumb_func
  98              	lcd_putchar:
  99              		@ args = 0, pretend = 0, frame = 0
 100              		@ frame_needed = 0, uses_anonymous_args = 0
 101 0000 10B5     		push	{r4, lr}
 102 0002 0400     		movs	r4, r0
 103 0004 454A     		ldr	r2, .L25
 104 0006 9169     		ldr	r1, [r2, #24]
 105 0008 8023     		movs	r3, #128
 106 000a DB01     		lsls	r3, r3, #7
 107 000c 0B43     		orrs	r3, r1
 108 000e 9361     		str	r3, [r2, #24]
 109 0010 43B2     		sxtb	r3, r0
 110 0012 002B     		cmp	r3, #0
 111 0014 46DB     		blt	.L24
 112 0016 9022     		movs	r2, #144
 113 0018 D205     		lsls	r2, r2, #23
 114 001a 9169     		ldr	r1, [r2, #24]
 115 001c 8023     		movs	r3, #128
 116 001e 1B06     		lsls	r3, r3, #24
 117 0020 0B43     		orrs	r3, r1
 118 0022 9361     		str	r3, [r2, #24]
 119              	.L9:
ARM GAS  C:\Users\vince\AppData\Local\Temp\cc1guG8Y.s 			page 3


 120 0024 6306     		lsls	r3, r4, #25
 121 0026 45D5     		bpl	.L10
 122 0028 9022     		movs	r2, #144
 123 002a D205     		lsls	r2, r2, #23
 124 002c 9169     		ldr	r1, [r2, #24]
 125 002e 8023     		movs	r3, #128
 126 0030 5B01     		lsls	r3, r3, #5
 127 0032 0B43     		orrs	r3, r1
 128 0034 9361     		str	r3, [r2, #24]
 129              	.L11:
 130 0036 A306     		lsls	r3, r4, #26
 131 0038 44D5     		bpl	.L12
 132 003a 394A     		ldr	r2, .L25+4
 133 003c 9169     		ldr	r1, [r2, #24]
 134 003e 8023     		movs	r3, #128
 135 0040 9B00     		lsls	r3, r3, #2
 136 0042 0B43     		orrs	r3, r1
 137 0044 9361     		str	r3, [r2, #24]
 138              	.L13:
 139 0046 E306     		lsls	r3, r4, #27
 140 0048 43D5     		bpl	.L14
 141 004a 354A     		ldr	r2, .L25+4
 142 004c 9169     		ldr	r1, [r2, #24]
 143 004e 8023     		movs	r3, #128
 144 0050 5B00     		lsls	r3, r3, #1
 145 0052 0B43     		orrs	r3, r1
 146 0054 9361     		str	r3, [r2, #24]
 147              	.L15:
 148 0056 FFF7FEFF 		bl	pulse_strobe
 149 005a 2307     		lsls	r3, r4, #28
 150 005c 40D5     		bpl	.L16
 151 005e 9022     		movs	r2, #144
 152 0060 D205     		lsls	r2, r2, #23
 153 0062 9169     		ldr	r1, [r2, #24]
 154 0064 8023     		movs	r3, #128
 155 0066 1B02     		lsls	r3, r3, #8
 156 0068 0B43     		orrs	r3, r1
 157 006a 9361     		str	r3, [r2, #24]
 158              	.L17:
 159 006c 6307     		lsls	r3, r4, #29
 160 006e 3FD5     		bpl	.L18
 161 0070 9022     		movs	r2, #144
 162 0072 D205     		lsls	r2, r2, #23
 163 0074 9169     		ldr	r1, [r2, #24]
 164 0076 8023     		movs	r3, #128
 165 0078 5B01     		lsls	r3, r3, #5
 166 007a 0B43     		orrs	r3, r1
 167 007c 9361     		str	r3, [r2, #24]
 168              	.L19:
 169 007e A307     		lsls	r3, r4, #30
 170 0080 3ED5     		bpl	.L20
 171 0082 274A     		ldr	r2, .L25+4
 172 0084 9169     		ldr	r1, [r2, #24]
 173 0086 8023     		movs	r3, #128
 174 0088 9B00     		lsls	r3, r3, #2
 175 008a 0B43     		orrs	r3, r1
 176 008c 9361     		str	r3, [r2, #24]
ARM GAS  C:\Users\vince\AppData\Local\Temp\cc1guG8Y.s 			page 4


 177              	.L21:
 178 008e E407     		lsls	r4, r4, #31
 179 0090 3DD5     		bpl	.L22
 180 0092 234A     		ldr	r2, .L25+4
 181 0094 9169     		ldr	r1, [r2, #24]
 182 0096 8023     		movs	r3, #128
 183 0098 5B00     		lsls	r3, r3, #1
 184 009a 0B43     		orrs	r3, r1
 185 009c 9361     		str	r3, [r2, #24]
 186              	.L23:
 187 009e FFF7FEFF 		bl	pulse_strobe
 188              		@ sp needed
 189 00a2 10BD     		pop	{r4, pc}
 190              	.L24:
 191 00a4 9022     		movs	r2, #144
 192 00a6 D205     		lsls	r2, r2, #23
 193 00a8 9169     		ldr	r1, [r2, #24]
 194 00aa 8023     		movs	r3, #128
 195 00ac 1B02     		lsls	r3, r3, #8
 196 00ae 0B43     		orrs	r3, r1
 197 00b0 9361     		str	r3, [r2, #24]
 198 00b2 B7E7     		b	.L9
 199              	.L10:
 200 00b4 9022     		movs	r2, #144
 201 00b6 D205     		lsls	r2, r2, #23
 202 00b8 9169     		ldr	r1, [r2, #24]
 203 00ba 8023     		movs	r3, #128
 204 00bc 5B05     		lsls	r3, r3, #21
 205 00be 0B43     		orrs	r3, r1
 206 00c0 9361     		str	r3, [r2, #24]
 207 00c2 B8E7     		b	.L11
 208              	.L12:
 209 00c4 164A     		ldr	r2, .L25+4
 210 00c6 9169     		ldr	r1, [r2, #24]
 211 00c8 8023     		movs	r3, #128
 212 00ca 9B04     		lsls	r3, r3, #18
 213 00cc 0B43     		orrs	r3, r1
 214 00ce 9361     		str	r3, [r2, #24]
 215 00d0 B9E7     		b	.L13
 216              	.L14:
 217 00d2 134A     		ldr	r2, .L25+4
 218 00d4 9169     		ldr	r1, [r2, #24]
 219 00d6 8023     		movs	r3, #128
 220 00d8 5B04     		lsls	r3, r3, #17
 221 00da 0B43     		orrs	r3, r1
 222 00dc 9361     		str	r3, [r2, #24]
 223 00de BAE7     		b	.L15
 224              	.L16:
 225 00e0 9022     		movs	r2, #144
 226 00e2 D205     		lsls	r2, r2, #23
 227 00e4 9169     		ldr	r1, [r2, #24]
 228 00e6 8023     		movs	r3, #128
 229 00e8 1B06     		lsls	r3, r3, #24
 230 00ea 0B43     		orrs	r3, r1
 231 00ec 9361     		str	r3, [r2, #24]
 232 00ee BDE7     		b	.L17
 233              	.L18:
ARM GAS  C:\Users\vince\AppData\Local\Temp\cc1guG8Y.s 			page 5


 234 00f0 9022     		movs	r2, #144
 235 00f2 D205     		lsls	r2, r2, #23
 236 00f4 9169     		ldr	r1, [r2, #24]
 237 00f6 8023     		movs	r3, #128
 238 00f8 5B05     		lsls	r3, r3, #21
 239 00fa 0B43     		orrs	r3, r1
 240 00fc 9361     		str	r3, [r2, #24]
 241 00fe BEE7     		b	.L19
 242              	.L20:
 243 0100 074A     		ldr	r2, .L25+4
 244 0102 9169     		ldr	r1, [r2, #24]
 245 0104 8023     		movs	r3, #128
 246 0106 9B04     		lsls	r3, r3, #18
 247 0108 0B43     		orrs	r3, r1
 248 010a 9361     		str	r3, [r2, #24]
 249 010c BFE7     		b	.L21
 250              	.L22:
 251 010e 044A     		ldr	r2, .L25+4
 252 0110 9169     		ldr	r1, [r2, #24]
 253 0112 8023     		movs	r3, #128
 254 0114 5B04     		lsls	r3, r3, #17
 255 0116 0B43     		orrs	r3, r1
 256 0118 9361     		str	r3, [r2, #24]
 257 011a C0E7     		b	.L23
 258              	.L26:
 259              		.align	2
 260              	.L25:
 261 011c 00080048 		.word	1207961600
 262 0120 00040048 		.word	1207960576
 264              		.section	.text.lcd_putstring,"ax",%progbits
 265              		.align	1
 266              		.global	lcd_putstring
 267              		.syntax unified
 268              		.code	16
 269              		.thumb_func
 271              	lcd_putstring:
 272              		@ args = 0, pretend = 0, frame = 0
 273              		@ frame_needed = 0, uses_anonymous_args = 0
 274 0000 70B5     		push	{r4, r5, r6, lr}
 275 0002 0500     		movs	r5, r0
 276 0004 0024     		movs	r4, #0
 277 0006 03E0     		b	.L28
 278              	.L29:
 279 0008 FFF7FEFF 		bl	lcd_putchar
 280 000c 0134     		adds	r4, r4, #1
 281 000e E4B2     		uxtb	r4, r4
 282              	.L28:
 283 0010 285D     		ldrb	r0, [r5, r4]
 284 0012 0028     		cmp	r0, #0
 285 0014 F8D1     		bne	.L29
 286              		@ sp needed
 287 0016 70BD     		pop	{r4, r5, r6, pc}
 289              		.section	.text.lcd_command,"ax",%progbits
 290              		.align	1
 291              		.global	lcd_command
 292              		.syntax unified
 293              		.code	16
ARM GAS  C:\Users\vince\AppData\Local\Temp\cc1guG8Y.s 			page 6


 294              		.thumb_func
 296              	lcd_command:
 297              		@ args = 0, pretend = 0, frame = 0
 298              		@ frame_needed = 0, uses_anonymous_args = 0
 299 0000 10B5     		push	{r4, lr}
 300 0002 0400     		movs	r4, r0
 301 0004 474A     		ldr	r2, .L48
 302 0006 9169     		ldr	r1, [r2, #24]
 303 0008 8023     		movs	r3, #128
 304 000a DB05     		lsls	r3, r3, #23
 305 000c 0B43     		orrs	r3, r1
 306 000e 9361     		str	r3, [r2, #24]
 307 0010 43B2     		sxtb	r3, r0
 308 0012 002B     		cmp	r3, #0
 309 0014 49DB     		blt	.L47
 310 0016 9022     		movs	r2, #144
 311 0018 D205     		lsls	r2, r2, #23
 312 001a 9169     		ldr	r1, [r2, #24]
 313 001c 8023     		movs	r3, #128
 314 001e 1B06     		lsls	r3, r3, #24
 315 0020 0B43     		orrs	r3, r1
 316 0022 9361     		str	r3, [r2, #24]
 317              	.L32:
 318 0024 6306     		lsls	r3, r4, #25
 319 0026 48D5     		bpl	.L33
 320 0028 9022     		movs	r2, #144
 321 002a D205     		lsls	r2, r2, #23
 322 002c 9169     		ldr	r1, [r2, #24]
 323 002e 8023     		movs	r3, #128
 324 0030 5B01     		lsls	r3, r3, #5
 325 0032 0B43     		orrs	r3, r1
 326 0034 9361     		str	r3, [r2, #24]
 327              	.L34:
 328 0036 A306     		lsls	r3, r4, #26
 329 0038 47D5     		bpl	.L35
 330 003a 3B4A     		ldr	r2, .L48+4
 331 003c 9169     		ldr	r1, [r2, #24]
 332 003e 8023     		movs	r3, #128
 333 0040 9B00     		lsls	r3, r3, #2
 334 0042 0B43     		orrs	r3, r1
 335 0044 9361     		str	r3, [r2, #24]
 336              	.L36:
 337 0046 E306     		lsls	r3, r4, #27
 338 0048 46D5     		bpl	.L37
 339 004a 374A     		ldr	r2, .L48+4
 340 004c 9169     		ldr	r1, [r2, #24]
 341 004e 8023     		movs	r3, #128
 342 0050 5B00     		lsls	r3, r3, #1
 343 0052 0B43     		orrs	r3, r1
 344 0054 9361     		str	r3, [r2, #24]
 345              	.L38:
 346 0056 FFF7FEFF 		bl	pulse_strobe
 347 005a 2307     		lsls	r3, r4, #28
 348 005c 43D5     		bpl	.L39
 349 005e 9022     		movs	r2, #144
 350 0060 D205     		lsls	r2, r2, #23
 351 0062 9169     		ldr	r1, [r2, #24]
ARM GAS  C:\Users\vince\AppData\Local\Temp\cc1guG8Y.s 			page 7


 352 0064 8023     		movs	r3, #128
 353 0066 1B02     		lsls	r3, r3, #8
 354 0068 0B43     		orrs	r3, r1
 355 006a 9361     		str	r3, [r2, #24]
 356              	.L40:
 357 006c 6307     		lsls	r3, r4, #29
 358 006e 42D5     		bpl	.L41
 359 0070 9022     		movs	r2, #144
 360 0072 D205     		lsls	r2, r2, #23
 361 0074 9169     		ldr	r1, [r2, #24]
 362 0076 8023     		movs	r3, #128
 363 0078 5B01     		lsls	r3, r3, #5
 364 007a 0B43     		orrs	r3, r1
 365 007c 9361     		str	r3, [r2, #24]
 366              	.L42:
 367 007e A307     		lsls	r3, r4, #30
 368 0080 41D5     		bpl	.L43
 369 0082 294A     		ldr	r2, .L48+4
 370 0084 9169     		ldr	r1, [r2, #24]
 371 0086 8023     		movs	r3, #128
 372 0088 9B00     		lsls	r3, r3, #2
 373 008a 0B43     		orrs	r3, r1
 374 008c 9361     		str	r3, [r2, #24]
 375              	.L44:
 376 008e E407     		lsls	r4, r4, #31
 377 0090 40D5     		bpl	.L45
 378 0092 254A     		ldr	r2, .L48+4
 379 0094 9169     		ldr	r1, [r2, #24]
 380 0096 8023     		movs	r3, #128
 381 0098 5B00     		lsls	r3, r3, #1
 382 009a 0B43     		orrs	r3, r1
 383 009c 9361     		str	r3, [r2, #24]
 384              	.L46:
 385 009e FFF7FEFF 		bl	pulse_strobe
 386 00a2 2248     		ldr	r0, .L48+8
 387 00a4 FFF7FEFF 		bl	delay
 388              		@ sp needed
 389 00a8 10BD     		pop	{r4, pc}
 390              	.L47:
 391 00aa 9022     		movs	r2, #144
 392 00ac D205     		lsls	r2, r2, #23
 393 00ae 9169     		ldr	r1, [r2, #24]
 394 00b0 8023     		movs	r3, #128
 395 00b2 1B02     		lsls	r3, r3, #8
 396 00b4 0B43     		orrs	r3, r1
 397 00b6 9361     		str	r3, [r2, #24]
 398 00b8 B4E7     		b	.L32
 399              	.L33:
 400 00ba 9022     		movs	r2, #144
 401 00bc D205     		lsls	r2, r2, #23
 402 00be 9169     		ldr	r1, [r2, #24]
 403 00c0 8023     		movs	r3, #128
 404 00c2 5B05     		lsls	r3, r3, #21
 405 00c4 0B43     		orrs	r3, r1
 406 00c6 9361     		str	r3, [r2, #24]
 407 00c8 B5E7     		b	.L34
 408              	.L35:
ARM GAS  C:\Users\vince\AppData\Local\Temp\cc1guG8Y.s 			page 8


 409 00ca 174A     		ldr	r2, .L48+4
 410 00cc 9169     		ldr	r1, [r2, #24]
 411 00ce 8023     		movs	r3, #128
 412 00d0 9B04     		lsls	r3, r3, #18
 413 00d2 0B43     		orrs	r3, r1
 414 00d4 9361     		str	r3, [r2, #24]
 415 00d6 B6E7     		b	.L36
 416              	.L37:
 417 00d8 134A     		ldr	r2, .L48+4
 418 00da 9169     		ldr	r1, [r2, #24]
 419 00dc 8023     		movs	r3, #128
 420 00de 5B04     		lsls	r3, r3, #17
 421 00e0 0B43     		orrs	r3, r1
 422 00e2 9361     		str	r3, [r2, #24]
 423 00e4 B7E7     		b	.L38
 424              	.L39:
 425 00e6 9022     		movs	r2, #144
 426 00e8 D205     		lsls	r2, r2, #23
 427 00ea 9169     		ldr	r1, [r2, #24]
 428 00ec 8023     		movs	r3, #128
 429 00ee 1B06     		lsls	r3, r3, #24
 430 00f0 0B43     		orrs	r3, r1
 431 00f2 9361     		str	r3, [r2, #24]
 432 00f4 BAE7     		b	.L40
 433              	.L41:
 434 00f6 9022     		movs	r2, #144
 435 00f8 D205     		lsls	r2, r2, #23
 436 00fa 9169     		ldr	r1, [r2, #24]
 437 00fc 8023     		movs	r3, #128
 438 00fe 5B05     		lsls	r3, r3, #21
 439 0100 0B43     		orrs	r3, r1
 440 0102 9361     		str	r3, [r2, #24]
 441 0104 BBE7     		b	.L42
 442              	.L43:
 443 0106 084A     		ldr	r2, .L48+4
 444 0108 9169     		ldr	r1, [r2, #24]
 445 010a 8023     		movs	r3, #128
 446 010c 9B04     		lsls	r3, r3, #18
 447 010e 0B43     		orrs	r3, r1
 448 0110 9361     		str	r3, [r2, #24]
 449 0112 BCE7     		b	.L44
 450              	.L45:
 451 0114 044A     		ldr	r2, .L48+4
 452 0116 9169     		ldr	r1, [r2, #24]
 453 0118 8023     		movs	r3, #128
 454 011a 5B04     		lsls	r3, r3, #17
 455 011c 0B43     		orrs	r3, r1
 456 011e 9361     		str	r3, [r2, #24]
 457 0120 BDE7     		b	.L46
 458              	.L49:
 459 0122 C046     		.align	2
 460              	.L48:
 461 0124 00080048 		.word	1207961600
 462 0128 00040048 		.word	1207960576
 463 012c B80B0000 		.word	3000
 465              		.section	.text.init_LCD,"ax",%progbits
 466              		.align	1
ARM GAS  C:\Users\vince\AppData\Local\Temp\cc1guG8Y.s 			page 9


 467              		.global	init_LCD
 468              		.syntax unified
 469              		.code	16
 470              		.thumb_func
 472              	init_LCD:
 473              		@ args = 0, pretend = 0, frame = 0
 474              		@ frame_needed = 0, uses_anonymous_args = 0
 475 0000 10B5     		push	{r4, lr}
 476 0002 1B4B     		ldr	r3, .L51
 477 0004 5969     		ldr	r1, [r3, #20]
 478 0006 8022     		movs	r2, #128
 479 0008 9202     		lsls	r2, r2, #10
 480 000a 0A43     		orrs	r2, r1
 481 000c 5A61     		str	r2, [r3, #20]
 482 000e 5969     		ldr	r1, [r3, #20]
 483 0010 8022     		movs	r2, #128
 484 0012 D202     		lsls	r2, r2, #11
 485 0014 0A43     		orrs	r2, r1
 486 0016 5A61     		str	r2, [r3, #20]
 487 0018 5969     		ldr	r1, [r3, #20]
 488 001a 8022     		movs	r2, #128
 489 001c 1203     		lsls	r2, r2, #12
 490 001e 0A43     		orrs	r2, r1
 491 0020 5A61     		str	r2, [r3, #20]
 492 0022 9022     		movs	r2, #144
 493 0024 D205     		lsls	r2, r2, #23
 494 0026 1168     		ldr	r1, [r2]
 495 0028 8223     		movs	r3, #130
 496 002a DB05     		lsls	r3, r3, #23
 497 002c 0B43     		orrs	r3, r1
 498 002e 1360     		str	r3, [r2]
 499 0030 104A     		ldr	r2, .L51+4
 500 0032 1168     		ldr	r1, [r2]
 501 0034 A023     		movs	r3, #160
 502 0036 DB02     		lsls	r3, r3, #11
 503 0038 0B43     		orrs	r3, r1
 504 003a 1360     		str	r3, [r2]
 505 003c 0E4A     		ldr	r2, .L51+8
 506 003e 1168     		ldr	r1, [r2]
 507 0040 A023     		movs	r3, #160
 508 0042 DB05     		lsls	r3, r3, #23
 509 0044 0B43     		orrs	r3, r1
 510 0046 1360     		str	r3, [r2]
 511 0048 0C48     		ldr	r0, .L51+12
 512 004a FFF7FEFF 		bl	delay
 513 004e 3320     		movs	r0, #51
 514 0050 FFF7FEFF 		bl	lcd_command
 515 0054 3220     		movs	r0, #50
 516 0056 FFF7FEFF 		bl	lcd_command
 517 005a 0C20     		movs	r0, #12
 518 005c FFF7FEFF 		bl	lcd_command
 519 0060 2820     		movs	r0, #40
 520 0062 FFF7FEFF 		bl	lcd_command
 521 0066 0120     		movs	r0, #1
 522 0068 FFF7FEFF 		bl	lcd_command
 523              		@ sp needed
 524 006c 10BD     		pop	{r4, pc}
ARM GAS  C:\Users\vince\AppData\Local\Temp\cc1guG8Y.s 			page 10


 525              	.L52:
 526 006e C046     		.align	2
 527              	.L51:
 528 0070 00100240 		.word	1073876992
 529 0074 00040048 		.word	1207960576
 530 0078 00080048 		.word	1207961600
 531 007c 30750000 		.word	30000
 533              		.section	.text.init_GPIO,"ax",%progbits
 534              		.align	1
 535              		.global	init_GPIO
 536              		.syntax unified
 537              		.code	16
 538              		.thumb_func
 540              	init_GPIO:
 541              		@ args = 0, pretend = 0, frame = 0
 542              		@ frame_needed = 0, uses_anonymous_args = 0
 543 0000 10B5     		push	{r4, lr}
 544 0002 114B     		ldr	r3, .L54
 545 0004 5969     		ldr	r1, [r3, #20]
 546 0006 8022     		movs	r2, #128
 547 0008 9202     		lsls	r2, r2, #10
 548 000a 0A43     		orrs	r2, r1
 549 000c 5A61     		str	r2, [r3, #20]
 550 000e 5969     		ldr	r1, [r3, #20]
 551 0010 8022     		movs	r2, #128
 552 0012 D202     		lsls	r2, r2, #11
 553 0014 0A43     		orrs	r2, r1
 554 0016 5A61     		str	r2, [r3, #20]
 555 0018 9023     		movs	r3, #144
 556 001a DB05     		lsls	r3, r3, #23
 557 001c 1A68     		ldr	r2, [r3]
 558 001e FF20     		movs	r0, #255
 559 0020 8243     		bics	r2, r0
 560 0022 1A60     		str	r2, [r3]
 561 0024 0949     		ldr	r1, .L54+4
 562 0026 0A68     		ldr	r2, [r1]
 563 0028 120C     		lsrs	r2, r2, #16
 564 002a 1204     		lsls	r2, r2, #16
 565 002c 0A60     		str	r2, [r1]
 566 002e 0C68     		ldr	r4, [r1]
 567 0030 074A     		ldr	r2, .L54+8
 568 0032 2243     		orrs	r2, r4
 569 0034 0A60     		str	r2, [r1]
 570 0036 DA68     		ldr	r2, [r3, #12]
 571 0038 8243     		bics	r2, r0
 572 003a DA60     		str	r2, [r3, #12]
 573 003c DA68     		ldr	r2, [r3, #12]
 574 003e 5521     		movs	r1, #85
 575 0040 0A43     		orrs	r2, r1
 576 0042 DA60     		str	r2, [r3, #12]
 577              		@ sp needed
 578 0044 10BD     		pop	{r4, pc}
 579              	.L55:
 580 0046 C046     		.align	2
 581              	.L54:
 582 0048 00100240 		.word	1073876992
 583 004c 00040048 		.word	1207960576
ARM GAS  C:\Users\vince\AppData\Local\Temp\cc1guG8Y.s 			page 11


 584 0050 55550000 		.word	21845
 586              		.section	.text.TIM14_init,"ax",%progbits
 587              		.align	1
 588              		.global	TIM14_init
 589              		.syntax unified
 590              		.code	16
 591              		.thumb_func
 593              	TIM14_init:
 594              		@ args = 0, pretend = 0, frame = 0
 595              		@ frame_needed = 0, uses_anonymous_args = 0
 596              		@ link register save eliminated.
 597 0000 104A     		ldr	r2, .L57
 598 0002 D169     		ldr	r1, [r2, #28]
 599 0004 8023     		movs	r3, #128
 600 0006 5B00     		lsls	r3, r3, #1
 601 0008 0B43     		orrs	r3, r1
 602 000a D361     		str	r3, [r2, #28]
 603 000c 0E4B     		ldr	r3, .L57+4
 604 000e 0F4A     		ldr	r2, .L57+8
 605 0010 9A62     		str	r2, [r3, #40]
 606 0012 FA22     		movs	r2, #250
 607 0014 9200     		lsls	r2, r2, #2
 608 0016 DA62     		str	r2, [r3, #44]
 609 0018 1A69     		ldr	r2, [r3, #16]
 610 001a 0121     		movs	r1, #1
 611 001c 8A43     		bics	r2, r1
 612 001e 1A61     		str	r2, [r3, #16]
 613 0020 DA68     		ldr	r2, [r3, #12]
 614 0022 0A43     		orrs	r2, r1
 615 0024 DA60     		str	r2, [r3, #12]
 616 0026 0A4A     		ldr	r2, .L57+12
 617 0028 C420     		movs	r0, #196
 618 002a 8000     		lsls	r0, r0, #2
 619 002c 1358     		ldr	r3, [r2, r0]
 620 002e 1B02     		lsls	r3, r3, #8
 621 0030 1B0A     		lsrs	r3, r3, #8
 622 0032 8021     		movs	r1, #128
 623 0034 0906     		lsls	r1, r1, #24
 624 0036 0B43     		orrs	r3, r1
 625 0038 1350     		str	r3, [r2, r0]
 626 003a 8023     		movs	r3, #128
 627 003c 1B03     		lsls	r3, r3, #12
 628 003e 1360     		str	r3, [r2]
 629              		@ sp needed
 630 0040 7047     		bx	lr
 631              	.L58:
 632 0042 C046     		.align	2
 633              	.L57:
 634 0044 00100240 		.word	1073876992
 635 0048 00200040 		.word	1073750016
 636 004c 7FBB0000 		.word	47999
 637 0050 00E100E0 		.word	-536813312
 639              		.section	.text.TIM14_IRQHandler,"ax",%progbits
 640              		.align	1
 641              		.global	TIM14_IRQHandler
 642              		.syntax unified
 643              		.code	16
ARM GAS  C:\Users\vince\AppData\Local\Temp\cc1guG8Y.s 			page 12


 644              		.thumb_func
 646              	TIM14_IRQHandler:
 647              		@ args = 0, pretend = 0, frame = 0
 648              		@ frame_needed = 0, uses_anonymous_args = 0
 649              		@ link register save eliminated.
 650 0000 054B     		ldr	r3, .L62
 651 0002 1B69     		ldr	r3, [r3, #16]
 652 0004 DB07     		lsls	r3, r3, #31
 653 0006 06D5     		bpl	.L59
 654 0008 0349     		ldr	r1, .L62
 655 000a 0B69     		ldr	r3, [r1, #16]
 656 000c 0122     		movs	r2, #1
 657 000e 9343     		bics	r3, r2
 658 0010 0B61     		str	r3, [r1, #16]
 659 0012 024B     		ldr	r3, .L62+4
 660 0014 1A70     		strb	r2, [r3]
 661              	.L59:
 662              		@ sp needed
 663 0016 7047     		bx	lr
 664              	.L63:
 665              		.align	2
 666              	.L62:
 667 0018 00200040 		.word	1073750016
 668 001c 00000000 		.word	timer_triggered
 670              		.section	.text.TIM2_init,"ax",%progbits
 671              		.align	1
 672              		.global	TIM2_init
 673              		.syntax unified
 674              		.code	16
 675              		.thumb_func
 677              	TIM2_init:
 678              		@ args = 0, pretend = 0, frame = 0
 679              		@ frame_needed = 0, uses_anonymous_args = 0
 680 0000 30B5     		push	{r4, r5, lr}
 681 0002 114A     		ldr	r2, .L65
 682 0004 D369     		ldr	r3, [r2, #28]
 683 0006 0121     		movs	r1, #1
 684 0008 0B43     		orrs	r3, r1
 685 000a D361     		str	r3, [r2, #28]
 686 000c 8023     		movs	r3, #128
 687 000e DB05     		lsls	r3, r3, #23
 688 0010 0E4A     		ldr	r2, .L65+4
 689 0012 9A62     		str	r2, [r3, #40]
 690 0014 C822     		movs	r2, #200
 691 0016 DA62     		str	r2, [r3, #44]
 692 0018 1A69     		ldr	r2, [r3, #16]
 693 001a 8A43     		bics	r2, r1
 694 001c 1A61     		str	r2, [r3, #16]
 695 001e DA68     		ldr	r2, [r3, #12]
 696 0020 0A43     		orrs	r2, r1
 697 0022 DA60     		str	r2, [r3, #12]
 698 0024 0A48     		ldr	r0, .L65+8
 699 0026 C325     		movs	r5, #195
 700 0028 AD00     		lsls	r5, r5, #2
 701 002a 4259     		ldr	r2, [r0, r5]
 702 002c 1202     		lsls	r2, r2, #8
 703 002e 120A     		lsrs	r2, r2, #8
ARM GAS  C:\Users\vince\AppData\Local\Temp\cc1guG8Y.s 			page 13


 704 0030 C024     		movs	r4, #192
 705 0032 2406     		lsls	r4, r4, #24
 706 0034 2243     		orrs	r2, r4
 707 0036 4251     		str	r2, [r0, r5]
 708 0038 8022     		movs	r2, #128
 709 003a 1202     		lsls	r2, r2, #8
 710 003c 0260     		str	r2, [r0]
 711 003e 1A68     		ldr	r2, [r3]
 712 0040 0A43     		orrs	r2, r1
 713 0042 1A60     		str	r2, [r3]
 714              		@ sp needed
 715 0044 30BD     		pop	{r4, r5, pc}
 716              	.L66:
 717 0046 C046     		.align	2
 718              	.L65:
 719 0048 00100240 		.word	1073876992
 720 004c 97B70000 		.word	46999
 721 0050 00E100E0 		.word	-536813312
 723              		.section	.rodata.main.str1.4,"aMS",%progbits,1
 724              		.align	2
 725              	.LC1:
 726 0000 53797374 		.ascii	"System Ready\000"
 726      656D2052 
 726      65616479 
 726      00
 727 000d 000000   		.align	2
 728              	.LC3:
 729 0010 54494D45 		.ascii	"TIMER DEMO\000"
 729      52204445 
 729      4D4F00
 730 001b 00       		.align	2
 731              	.LC7:
 732 001c 54696D65 		.ascii	"Timer Started\000"
 732      72205374 
 732      61727465 
 732      6400
 733 002a 0000     		.align	2
 734              	.LC9:
 735 002c 54696D65 		.ascii	"Timer Stopped\000"
 735      72205374 
 735      6F707065 
 735      6400
 736 003a 0000     		.align	2
 737              	.LC11:
 738 003c 52657365 		.ascii	"Resetting...\000"
 738      7474696E 
 738      672E2E2E 
 738      00
 739 0049 000000   		.align	2
 740              	.LC17:
 741 004c 54494D31 		.ascii	"TIM14:\000"
 741      343A00
 742 0053 00       		.align	2
 743              	.LC19:
 744 0054 54494D32 		.ascii	"TIM2:\000"
 744      3A00
 745              		.section	.text.main,"ax",%progbits
ARM GAS  C:\Users\vince\AppData\Local\Temp\cc1guG8Y.s 			page 14


 746              		.align	1
 747              		.global	main
 748              		.syntax unified
 749              		.code	16
 750              		.thumb_func
 752              	main:
 753              		@ args = 0, pretend = 0, frame = 0
 754              		@ frame_needed = 0, uses_anonymous_args = 0
 755 0000 70B5     		push	{r4, r5, r6, lr}
 756 0002 FFF7FEFF 		bl	init_GPIO
 757 0006 FFF7FEFF 		bl	init_LCD
 758 000a 0120     		movs	r0, #1
 759 000c FFF7FEFF 		bl	lcd_command
 760 0010 5648     		ldr	r0, .L82
 761 0012 FFF7FEFF 		bl	lcd_putstring
 762 0016 564C     		ldr	r4, .L82+4
 763 0018 2000     		movs	r0, r4
 764 001a FFF7FEFF 		bl	delay
 765 001e FFF7FEFF 		bl	TIM2_init
 766 0022 0120     		movs	r0, #1
 767 0024 FFF7FEFF 		bl	lcd_command
 768 0028 5248     		ldr	r0, .L82+8
 769 002a FFF7FEFF 		bl	lcd_putstring
 770 002e 2000     		movs	r0, r4
 771 0030 FFF7FEFF 		bl	delay
 772 0034 FFF7FEFF 		bl	TIM14_init
 773 0038 4F4A     		ldr	r2, .L82+12
 774 003a 1368     		ldr	r3, [r2]
 775 003c 0121     		movs	r1, #1
 776 003e 8B43     		bics	r3, r1
 777 0040 1360     		str	r3, [r2]
 778 0042 FF22     		movs	r2, #255
 779 0044 76E0     		b	.L68
 780              	.L78:
 781 0046 4D48     		ldr	r0, .L82+16
 782 0048 0178     		ldrb	r1, [r0]
 783 004a 0131     		adds	r1, r1, #1
 784 004c 0633     		adds	r3, r3, #6
 785 004e 0B40     		ands	r3, r1
 786 0050 0370     		strb	r3, [r0]
 787 0052 4B4B     		ldr	r3, .L82+20
 788 0054 0021     		movs	r1, #0
 789 0056 1970     		strb	r1, [r3]
 790 0058 70E0     		b	.L69
 791              	.L79:
 792 005a 474A     		ldr	r2, .L82+12
 793 005c 1368     		ldr	r3, [r2]
 794 005e 0121     		movs	r1, #1
 795 0060 0B43     		orrs	r3, r1
 796 0062 1360     		str	r3, [r2]
 797 0064 0120     		movs	r0, #1
 798 0066 FFF7FEFF 		bl	lcd_command
 799 006a 4648     		ldr	r0, .L82+24
 800 006c FFF7FEFF 		bl	lcd_putstring
 801 0070 4548     		ldr	r0, .L82+28
 802 0072 FFF7FEFF 		bl	delay
 803 0076 FF22     		movs	r2, #255
ARM GAS  C:\Users\vince\AppData\Local\Temp\cc1guG8Y.s 			page 15


 804 0078 65E0     		b	.L70
 805              	.L80:
 806 007a 3F4A     		ldr	r2, .L82+12
 807 007c 1368     		ldr	r3, [r2]
 808 007e 0121     		movs	r1, #1
 809 0080 8B43     		bics	r3, r1
 810 0082 1360     		str	r3, [r2]
 811 0084 0120     		movs	r0, #1
 812 0086 FFF7FEFF 		bl	lcd_command
 813 008a 4048     		ldr	r0, .L82+32
 814 008c FFF7FEFF 		bl	lcd_putstring
 815 0090 3D48     		ldr	r0, .L82+28
 816 0092 FFF7FEFF 		bl	delay
 817 0096 FF22     		movs	r2, #255
 818 0098 5AE0     		b	.L71
 819              	.L81:
 820 009a 384B     		ldr	r3, .L82+16
 821 009c 0022     		movs	r2, #0
 822 009e 1A70     		strb	r2, [r3]
 823 00a0 0120     		movs	r0, #1
 824 00a2 FFF7FEFF 		bl	lcd_command
 825 00a6 3A48     		ldr	r0, .L82+36
 826 00a8 FFF7FEFF 		bl	lcd_putstring
 827 00ac 3648     		ldr	r0, .L82+28
 828 00ae FFF7FEFF 		bl	delay
 829 00b2 FF22     		movs	r2, #255
 830 00b4 51E0     		b	.L72
 831              	.L73:
 832 00b6 3749     		ldr	r1, .L82+40
 833 00b8 4B69     		ldr	r3, [r1, #20]
 834 00ba 374C     		ldr	r4, .L82+44
 835 00bc D200     		lsls	r2, r2, #3
 836 00be 1259     		ldr	r2, [r2, r4]
 837 00c0 9343     		bics	r3, r2
 838 00c2 C000     		lsls	r0, r0, #3
 839 00c4 0259     		ldr	r2, [r0, r4]
 840 00c6 1343     		orrs	r3, r2
 841 00c8 344D     		ldr	r5, .L82+48
 842 00ca 2E78     		ldrb	r6, [r5]
 843 00cc 0722     		movs	r2, #7
 844 00ce 961B     		subs	r6, r2, r6
 845 00d0 F600     		lsls	r6, r6, #3
 846 00d2 3659     		ldr	r6, [r6, r4]
 847 00d4 3343     		orrs	r3, r6
 848 00d6 4B61     		str	r3, [r1, #20]
 849 00d8 4B69     		ldr	r3, [r1, #20]
 850 00da 314E     		ldr	r6, .L82+52
 851 00dc 3678     		ldrb	r6, [r6]
 852 00de F600     		lsls	r6, r6, #3
 853 00e0 3659     		ldr	r6, [r6, r4]
 854 00e2 B343     		bics	r3, r6
 855 00e4 2E78     		ldrb	r6, [r5]
 856 00e6 921B     		subs	r2, r2, r6
 857 00e8 D200     		lsls	r2, r2, #3
 858 00ea 1259     		ldr	r2, [r2, r4]
 859 00ec 1343     		orrs	r3, r2
 860 00ee 0259     		ldr	r2, [r0, r4]
ARM GAS  C:\Users\vince\AppData\Local\Temp\cc1guG8Y.s 			page 16


 861 00f0 1343     		orrs	r3, r2
 862 00f2 4B61     		str	r3, [r1, #20]
 863 00f4 2B4B     		ldr	r3, .L82+56
 864 00f6 0022     		movs	r2, #0
 865 00f8 1A70     		strb	r2, [r3]
 866 00fa 0120     		movs	r0, #1
 867 00fc FFF7FEFF 		bl	lcd_command
 868 0100 8020     		movs	r0, #128
 869 0102 FFF7FEFF 		bl	lcd_command
 870 0106 2848     		ldr	r0, .L82+60
 871 0108 FFF7FEFF 		bl	lcd_putstring
 872 010c 1B4E     		ldr	r6, .L82+16
 873 010e 3378     		ldrb	r3, [r6]
 874 0110 DB00     		lsls	r3, r3, #3
 875 0112 E318     		adds	r3, r4, r3
 876 0114 5868     		ldr	r0, [r3, #4]
 877 0116 FFF7FEFF 		bl	lcd_putstring
 878 011a 8120     		movs	r0, #129
 879 011c FFF7FEFF 		bl	lcd_command
 880 0120 2248     		ldr	r0, .L82+64
 881 0122 FFF7FEFF 		bl	lcd_putstring
 882 0126 2B78     		ldrb	r3, [r5]
 883 0128 DB00     		lsls	r3, r3, #3
 884 012a E418     		adds	r4, r4, r3
 885 012c 6068     		ldr	r0, [r4, #4]
 886 012e FFF7FEFF 		bl	lcd_putstring
 887 0132 3278     		ldrb	r2, [r6]
 888              	.L68:
 889 0134 124B     		ldr	r3, .L82+20
 890 0136 1B78     		ldrb	r3, [r3]
 891 0138 012B     		cmp	r3, #1
 892 013a 84D0     		beq	.L78
 893              	.L69:
 894 013c 9023     		movs	r3, #144
 895 013e DB05     		lsls	r3, r3, #23
 896 0140 1B69     		ldr	r3, [r3, #16]
 897 0142 DB07     		lsls	r3, r3, #31
 898 0144 89D5     		bpl	.L79
 899              	.L70:
 900 0146 9023     		movs	r3, #144
 901 0148 DB05     		lsls	r3, r3, #23
 902 014a 1B69     		ldr	r3, [r3, #16]
 903 014c 9B07     		lsls	r3, r3, #30
 904 014e 94D5     		bpl	.L80
 905              	.L71:
 906 0150 9023     		movs	r3, #144
 907 0152 DB05     		lsls	r3, r3, #23
 908 0154 1B69     		ldr	r3, [r3, #16]
 909 0156 5B07     		lsls	r3, r3, #29
 910 0158 9FD5     		bpl	.L81
 911              	.L72:
 912 015a 084B     		ldr	r3, .L82+16
 913 015c 1878     		ldrb	r0, [r3]
 914 015e 9042     		cmp	r0, r2
 915 0160 A9D1     		bne	.L73
 916 0162 104B     		ldr	r3, .L82+56
 917 0164 1B78     		ldrb	r3, [r3]
ARM GAS  C:\Users\vince\AppData\Local\Temp\cc1guG8Y.s 			page 17


 918 0166 002B     		cmp	r3, #0
 919 0168 E4D0     		beq	.L68
 920 016a A4E7     		b	.L73
 921              	.L83:
 922              		.align	2
 923              	.L82:
 924 016c 00000000 		.word	.LC1
 925 0170 A0860100 		.word	100000
 926 0174 10000000 		.word	.LC3
 927 0178 00200040 		.word	1073750016
 928 017c 00000000 		.word	current_state
 929 0180 00000000 		.word	timer_triggered
 930 0184 1C000000 		.word	.LC7
 931 0188 400D0300 		.word	200000
 932 018c 2C000000 		.word	.LC9
 933 0190 3C000000 		.word	.LC11
 934 0194 00040048 		.word	1207960576
 935 0198 00000000 		.word	states
 936 019c 00000000 		.word	current_state1
 937 01a0 00000000 		.word	prev_state
 938 01a4 00000000 		.word	timer2_triggered
 939 01a8 4C000000 		.word	.LC17
 940 01ac 54000000 		.word	.LC19
 942              		.section	.text.TIM2_IRQHandler,"ax",%progbits
 943              		.align	1
 944              		.global	TIM2_IRQHandler
 945              		.syntax unified
 946              		.code	16
 947              		.thumb_func
 949              	TIM2_IRQHandler:
 950              		@ args = 0, pretend = 0, frame = 0
 951              		@ frame_needed = 0, uses_anonymous_args = 0
 952              		@ link register save eliminated.
 953 0000 8023     		movs	r3, #128
 954 0002 DB05     		lsls	r3, r3, #23
 955 0004 1B69     		ldr	r3, [r3, #16]
 956 0006 DB07     		lsls	r3, r3, #31
 957 0008 12D5     		bpl	.L84
 958 000a 8021     		movs	r1, #128
 959 000c C905     		lsls	r1, r1, #23
 960 000e 0B69     		ldr	r3, [r1, #16]
 961 0010 0122     		movs	r2, #1
 962 0012 9343     		bics	r3, r2
 963 0014 0B61     		str	r3, [r1, #16]
 964 0016 074B     		ldr	r3, .L87
 965 0018 1A70     		strb	r2, [r3]
 966 001a 074B     		ldr	r3, .L87+4
 967 001c 1978     		ldrb	r1, [r3]
 968 001e 0722     		movs	r2, #7
 969 0020 521A     		subs	r2, r2, r1
 970 0022 0649     		ldr	r1, .L87+8
 971 0024 0A70     		strb	r2, [r1]
 972 0026 1978     		ldrb	r1, [r3]
 973 0028 0131     		adds	r1, r1, #1
 974 002a 0722     		movs	r2, #7
 975 002c 0A40     		ands	r2, r1
 976 002e 1A70     		strb	r2, [r3]
ARM GAS  C:\Users\vince\AppData\Local\Temp\cc1guG8Y.s 			page 18


 977              	.L84:
 978              		@ sp needed
 979 0030 7047     		bx	lr
 980              	.L88:
 981 0032 C046     		.align	2
 982              	.L87:
 983 0034 00000000 		.word	timer2_triggered
 984 0038 00000000 		.word	current_state1
 985 003c 00000000 		.word	prev_state
 987              		.global	timer2_triggered
 988              		.section	.bss.timer2_triggered,"aw",%nobits
 991              	timer2_triggered:
 992 0000 00       		.space	1
 993              		.global	timer_triggered
 994              		.section	.bss.timer_triggered,"aw",%nobits
 997              	timer_triggered:
 998 0000 00       		.space	1
 999              		.global	current_state1
 1000              		.section	.bss.current_state1,"aw",%nobits
 1003              	current_state1:
 1004 0000 00       		.space	1
 1005              		.global	prev_state
 1006              		.section	.bss.prev_state,"aw",%nobits
 1009              	prev_state:
 1010 0000 00       		.space	1
 1011              		.global	current_state
 1012              		.section	.bss.current_state,"aw",%nobits
 1015              	current_state:
 1016 0000 00       		.space	1
 1017              		.global	LED_MASK
 1018              		.section	.rodata.LED_MASK,"a"
 1019              		.align	2
 1022              	LED_MASK:
 1023 0000 FF000000 		.word	255
 1024              		.global	states
 1025              		.section	.rodata.str1.4,"aMS",%progbits,1
 1026              		.align	2
 1027              	.LC24:
 1028 0000 53746174 		.ascii	"State 0\000"
 1028      65203000 
 1029              		.align	2
 1030              	.LC25:
 1031 0008 53746174 		.ascii	"State 1\000"
 1031      65203100 
 1032              		.align	2
 1033              	.LC26:
 1034 0010 53746174 		.ascii	"State 2\000"
 1034      65203200 
 1035              		.align	2
 1036              	.LC27:
 1037 0018 53746174 		.ascii	"State 3\000"
 1037      65203300 
 1038              		.align	2
 1039              	.LC28:
 1040 0020 53746174 		.ascii	"State 4\000"
 1040      65203400 
 1041              		.align	2
ARM GAS  C:\Users\vince\AppData\Local\Temp\cc1guG8Y.s 			page 19


 1042              	.LC29:
 1043 0028 53746174 		.ascii	"State 5\000"
 1043      65203500 
 1044              		.align	2
 1045              	.LC30:
 1046 0030 53746174 		.ascii	"State 6\000"
 1046      65203600 
 1047              		.align	2
 1048              	.LC31:
 1049 0038 53746174 		.ascii	"State 7\000"
 1049      65203700 
 1050              		.section	.data.states,"aw"
 1051              		.align	2
 1054              	states:
 1055 0000 01000000 		.word	1
 1056 0004 00000000 		.word	.LC24
 1057 0008 02000000 		.word	2
 1058 000c 08000000 		.word	.LC25
 1059 0010 04000000 		.word	4
 1060 0014 10000000 		.word	.LC26
 1061 0018 08000000 		.word	8
 1062 001c 18000000 		.word	.LC27
 1063 0020 10000000 		.word	16
 1064 0024 20000000 		.word	.LC28
 1065 0028 20000000 		.word	32
 1066 002c 28000000 		.word	.LC29
 1067 0030 40000000 		.word	64
 1068 0034 30000000 		.word	.LC30
 1069 0038 80000000 		.word	128
 1070 003c 38000000 		.word	.LC31
 1071              		.ident	"GCC: (xPack GNU Arm Embedded GCC x86_64) 14.2.1 20241119"
ARM GAS  C:\Users\vince\AppData\Local\Temp\cc1guG8Y.s 			page 20

